

Microchip MPLAB XC8 Assembler V2.31 build 20201012212115 
                                                                                               Sun Aug 15 01:31:43 2021

Microchip MPLAB XC8 C Compiler v2.31 (Free license) build 20201012212115 Og1 
     1                           	processor	16F887
     2                           	pagewidth 120
     3                           	opt	flic
     4                           	psect	strings,global,class=STRING,delta=2,noexec
     5                           	psect	cinit,global,class=CODE,merge=1,delta=2
     6                           	psect	bssCOMMON,global,class=COMMON,space=1,delta=1,noexec
     7                           	psect	bssBANK0,global,class=BANK0,space=1,delta=1,noexec
     8                           	psect	cstackCOMMON,global,class=COMMON,space=1,delta=1,noexec
     9                           	psect	cstackBANK0,global,class=BANK0,space=1,delta=1,noexec
    10                           	psect	maintext,global,class=CODE,split=1,delta=2
    11                           	psect	text1,local,class=CODE,merge=1,delta=2
    12                           	psect	text2,local,class=CODE,merge=1,delta=2
    13                           	psect	text3,local,class=CODE,merge=1,delta=2,group=1
    14                           	psect	text4,local,class=CODE,merge=1,delta=2
    15                           	psect	text5,local,class=CODE,merge=1,delta=2
    16                           	psect	text6,local,class=CODE,merge=1,delta=2,group=2
    17                           	psect	text7,local,class=CODE,merge=1,delta=2,group=2
    18                           	psect	text8,local,class=CODE,merge=1,delta=2
    19                           	psect	text9,local,class=CODE,merge=1,delta=2
    20                           	psect	intentry,global,class=CODE,delta=2
    21                           	psect	config,global,abs,ovrld,class=CONFIG,space=4,delta=2,noexec
    22                           	dabs	1,0x7E,2
    23  0000                     
    24                           ; Version 2.20
    25                           ; Generated 12/02/2020 GMT
    26                           ; 
    27                           ; Copyright © 2020, Microchip Technology Inc. and its subsidiaries ("Microchip")
    28                           ; All rights reserved.
    29                           ; 
    30                           ; This software is developed by Microchip Technology Inc. and its subsidiaries ("Microch
      +                          ip").
    31                           ; 
    32                           ; Redistribution and use in source and binary forms, with or without modification, are
    33                           ; permitted provided that the following conditions are met:
    34                           ; 
    35                           ;     1. Redistributions of source code must retain the above copyright notice, this lis
      +                          t of
    36                           ;        conditions and the following disclaimer.
    37                           ; 
    38                           ;     2. Redistributions in binary form must reproduce the above copyright notice, this 
      +                          list
    39                           ;        of conditions and the following disclaimer in the documentation and/or other
    40                           ;        materials provided with the distribution.
    41                           ; 
    42                           ;     3. Microchip's name may not be used to endorse or promote products derived from th
      +                          is
    43                           ;        software without specific prior written permission.
    44                           ; 
    45                           ; THIS SOFTWARE IS PROVIDED BY MICROCHIP "AS IS" AND ANY EXPRESS OR IMPLIED WARRANTIES,
    46                           ; INCLUDING, BUT NOT LIMITED TO, THE IMPLIED WARRANTIES OF MERCHANTABILITY AND FITNESS F
      +                          OR
    47                           ; PURPOSE ARE DISCLAIMED.  IN NO EVENT SHALL MICROCHIP BE LIABLE FOR ANY DIRECT, INDIREC
      +                          T,
    48                           ; INCIDENTAL, SPECIAL, EXEMPLARY, OR CONSEQUENTIAL DAMAGES (INCLUDING BUT NOT LIMITED TO
    49                           ; PROCUREMENT OF SUBSTITUTE GOODS OR SERVICES; LOSS OF USE, DATA OR PROFITS; OR BUSINESS
    50                           ; INTERRUPTION) HOWSOEVER CAUSED AND ON ANY THEORY OF LIABILITY, WHETHER IN CONTRACT, ST
      +                          RICT
    51                           ; LIABILITY, OR TORT (INCLUDING NEGLIGENCE OR OTHERWISE) ARISING IN ANY WAY OUT OF THE U
      +                          SE OF
    52                           ; THIS SOFTWARE, EVEN IF ADVISED OF THE POSSIBILITY OF SUCH DAMAGE.
    53                           ; 
    54                           ; 
    55                           ; Code-generator required, PIC16F887 Definitions
    56                           ; 
    57                           ; SFR Addresses
    58  0000                     	;# 
    59  0001                     	;# 
    60  0002                     	;# 
    61  0003                     	;# 
    62  0004                     	;# 
    63  0005                     	;# 
    64  0006                     	;# 
    65  0007                     	;# 
    66  0008                     	;# 
    67  0009                     	;# 
    68  000A                     	;# 
    69  000B                     	;# 
    70  000C                     	;# 
    71  000D                     	;# 
    72  000E                     	;# 
    73  000E                     	;# 
    74  000F                     	;# 
    75  0010                     	;# 
    76  0011                     	;# 
    77  0012                     	;# 
    78  0013                     	;# 
    79  0014                     	;# 
    80  0015                     	;# 
    81  0015                     	;# 
    82  0016                     	;# 
    83  0017                     	;# 
    84  0018                     	;# 
    85  0019                     	;# 
    86  001A                     	;# 
    87  001B                     	;# 
    88  001B                     	;# 
    89  001C                     	;# 
    90  001D                     	;# 
    91  001E                     	;# 
    92  001F                     	;# 
    93  0081                     	;# 
    94  0085                     	;# 
    95  0086                     	;# 
    96  0087                     	;# 
    97  0088                     	;# 
    98  0089                     	;# 
    99  008C                     	;# 
   100  008D                     	;# 
   101  008E                     	;# 
   102  008F                     	;# 
   103  0090                     	;# 
   104  0091                     	;# 
   105  0092                     	;# 
   106  0093                     	;# 
   107  0093                     	;# 
   108  0093                     	;# 
   109  0094                     	;# 
   110  0095                     	;# 
   111  0096                     	;# 
   112  0097                     	;# 
   113  0098                     	;# 
   114  0099                     	;# 
   115  009A                     	;# 
   116  009B                     	;# 
   117  009C                     	;# 
   118  009D                     	;# 
   119  009E                     	;# 
   120  009F                     	;# 
   121  0105                     	;# 
   122  0107                     	;# 
   123  0108                     	;# 
   124  0109                     	;# 
   125  010C                     	;# 
   126  010C                     	;# 
   127  010D                     	;# 
   128  010E                     	;# 
   129  010F                     	;# 
   130  0185                     	;# 
   131  0187                     	;# 
   132  0188                     	;# 
   133  0189                     	;# 
   134  018C                     	;# 
   135  018D                     	;# 
   136  0000                     	;# 
   137  0001                     	;# 
   138  0002                     	;# 
   139  0003                     	;# 
   140  0004                     	;# 
   141  0005                     	;# 
   142  0006                     	;# 
   143  0007                     	;# 
   144  0008                     	;# 
   145  0009                     	;# 
   146  000A                     	;# 
   147  000B                     	;# 
   148  000C                     	;# 
   149  000D                     	;# 
   150  000E                     	;# 
   151  000E                     	;# 
   152  000F                     	;# 
   153  0010                     	;# 
   154  0011                     	;# 
   155  0012                     	;# 
   156  0013                     	;# 
   157  0014                     	;# 
   158  0015                     	;# 
   159  0015                     	;# 
   160  0016                     	;# 
   161  0017                     	;# 
   162  0018                     	;# 
   163  0019                     	;# 
   164  001A                     	;# 
   165  001B                     	;# 
   166  001B                     	;# 
   167  001C                     	;# 
   168  001D                     	;# 
   169  001E                     	;# 
   170  001F                     	;# 
   171  0081                     	;# 
   172  0085                     	;# 
   173  0086                     	;# 
   174  0087                     	;# 
   175  0088                     	;# 
   176  0089                     	;# 
   177  008C                     	;# 
   178  008D                     	;# 
   179  008E                     	;# 
   180  008F                     	;# 
   181  0090                     	;# 
   182  0091                     	;# 
   183  0092                     	;# 
   184  0093                     	;# 
   185  0093                     	;# 
   186  0093                     	;# 
   187  0094                     	;# 
   188  0095                     	;# 
   189  0096                     	;# 
   190  0097                     	;# 
   191  0098                     	;# 
   192  0099                     	;# 
   193  009A                     	;# 
   194  009B                     	;# 
   195  009C                     	;# 
   196  009D                     	;# 
   197  009E                     	;# 
   198  009F                     	;# 
   199  0105                     	;# 
   200  0107                     	;# 
   201  0108                     	;# 
   202  0109                     	;# 
   203  010C                     	;# 
   204  010C                     	;# 
   205  010D                     	;# 
   206  010E                     	;# 
   207  010F                     	;# 
   208  0185                     	;# 
   209  0187                     	;# 
   210  0188                     	;# 
   211  0189                     	;# 
   212  018C                     	;# 
   213  018D                     	;# 
   214  0000                     	;# 
   215  0001                     	;# 
   216  0002                     	;# 
   217  0003                     	;# 
   218  0004                     	;# 
   219  0005                     	;# 
   220  0006                     	;# 
   221  0007                     	;# 
   222  0008                     	;# 
   223  0009                     	;# 
   224  000A                     	;# 
   225  000B                     	;# 
   226  000C                     	;# 
   227  000D                     	;# 
   228  000E                     	;# 
   229  000E                     	;# 
   230  000F                     	;# 
   231  0010                     	;# 
   232  0011                     	;# 
   233  0012                     	;# 
   234  0013                     	;# 
   235  0014                     	;# 
   236  0015                     	;# 
   237  0015                     	;# 
   238  0016                     	;# 
   239  0017                     	;# 
   240  0018                     	;# 
   241  0019                     	;# 
   242  001A                     	;# 
   243  001B                     	;# 
   244  001B                     	;# 
   245  001C                     	;# 
   246  001D                     	;# 
   247  001E                     	;# 
   248  001F                     	;# 
   249  0081                     	;# 
   250  0085                     	;# 
   251  0086                     	;# 
   252  0087                     	;# 
   253  0088                     	;# 
   254  0089                     	;# 
   255  008C                     	;# 
   256  008D                     	;# 
   257  008E                     	;# 
   258  008F                     	;# 
   259  0090                     	;# 
   260  0091                     	;# 
   261  0092                     	;# 
   262  0093                     	;# 
   263  0093                     	;# 
   264  0093                     	;# 
   265  0094                     	;# 
   266  0095                     	;# 
   267  0096                     	;# 
   268  0097                     	;# 
   269  0098                     	;# 
   270  0099                     	;# 
   271  009A                     	;# 
   272  009B                     	;# 
   273  009C                     	;# 
   274  009D                     	;# 
   275  009E                     	;# 
   276  009F                     	;# 
   277  0105                     	;# 
   278  0107                     	;# 
   279  0108                     	;# 
   280  0109                     	;# 
   281  010C                     	;# 
   282  010C                     	;# 
   283  010D                     	;# 
   284  010E                     	;# 
   285  010F                     	;# 
   286  0185                     	;# 
   287  0187                     	;# 
   288  0188                     	;# 
   289  0189                     	;# 
   290  018C                     	;# 
   291  018D                     	;# 
   292  0019                     _TXREG	set	25
   293  000B                     _INTCONbits	set	11
   294  0018                     _RCSTAbits	set	24
   295  0005                     _PORTA	set	5
   296  001E                     _ADRESH	set	30
   297  001F                     _ADCON0bits	set	31
   298  000C                     _PIR1bits	set	12
   299  0064                     _TXIF	set	100
   300  008C                     _PIE1bits	set	140
   301  009A                     _SPBRGH	set	154
   302  0099                     _SPBRG	set	153
   303  0098                     _TXSTAbits	set	152
   304  009F                     _ADCON1bits	set	159
   305  008F                     _OSCCONbits	set	143
   306  0085                     _TRISAbits	set	133
   307  0187                     _BAUDCTLbits	set	391
   308  0189                     _ANSELH	set	393
   309  0188                     _ANSEL	set	392
   310                           
   311                           	psect	strings
   312  0386                     __pstrings:
   313  0386                     stringtab:
   314  0386                     __stringtab:
   315  0386                     stringcode:	
   316                           ;	String table - string pointers are 1 byte each
   317                           
   318  0386                     stringdir:
   319  0386  3003               	movlw	high stringdir
   320  0387  008A               	movwf	10
   321  0388  0804               	movf	4,w
   322  0389  0A84               	incf	4,f
   323  038A  0782               	addwf	2,f
   324  038B                     __stringbase:
   325  038B  3400               	retlw	0
   326  038C                     __end_of__stringtab:
   327  038C                     STR_1:
   328  038C  3420               	retlw	32	;' '
   329  038D  3400               	retlw	0
   330  038C                     
   331                           	psect	cinit
   332  000F                     start_initialization:	
   333                           ; #config settings
   334                           
   335  000F                     __initialization:
   336                           
   337                           ; Clear objects allocated to COMMON
   338  000F  01F8               	clrf	__pbssCOMMON& (0+127)
   339  0010  01F9               	clrf	(__pbssCOMMON+1)& (0+127)
   340  0011  01FA               	clrf	(__pbssCOMMON+2)& (0+127)
   341                           
   342                           ; Clear objects allocated to BANK0
   343  0012  1283               	bcf	3,5	;RP0=0, select bank0
   344  0013  1303               	bcf	3,6	;RP1=0, select bank0
   345  0014  01AB               	clrf	__pbssBANK0& (0+127)
   346  0015  01AC               	clrf	(__pbssBANK0+1)& (0+127)
   347  0016  01AD               	clrf	(__pbssBANK0+2)& (0+127)
   348  0017  01AE               	clrf	(__pbssBANK0+3)& (0+127)
   349  0018  01AF               	clrf	(__pbssBANK0+4)& (0+127)
   350  0019  01B0               	clrf	(__pbssBANK0+5)& (0+127)
   351  001A  01B1               	clrf	(__pbssBANK0+6)& (0+127)
   352  001B  01B2               	clrf	(__pbssBANK0+7)& (0+127)
   353  001C  01B3               	clrf	(__pbssBANK0+8)& (0+127)
   354  001D  01B4               	clrf	(__pbssBANK0+9)& (0+127)
   355  001E                     end_of_initialization:	
   356                           ;End of C runtime variable initialization code
   357                           
   358  001E                     __end_of__initialization:
   359  001E  0183               	clrf	3
   360  001F  120A  118A  2B51   	ljmp	_main	;jump to C main() function
   361                           
   362                           	psect	bssCOMMON
   363  0078                     __pbssCOMMON:
   364  0078                     _POT3:
   365  0078                     	ds	1
   366  0079                     _POT2:
   367  0079                     	ds	1
   368  007A                     _POT1:
   369  007A                     	ds	1
   370                           
   371                           	psect	bssBANK0
   372  002B                     __pbssBANK0:
   373  002B                     _c:
   374  002B                     	ds	2
   375  002D                     _b:
   376  002D                     	ds	2
   377  002F                     _a:
   378  002F                     	ds	2
   379  0031                     _unidades:
   380  0031                     	ds	1
   381  0032                     _decenas:
   382  0032                     	ds	1
   383  0033                     _centenas:
   384  0033                     	ds	1
   385  0034                     _POT4:
   386  0034                     	ds	1
   387                           
   388                           	psect	cstackCOMMON
   389  0070                     __pcstackCOMMON:
   390  0070                     ?_setup:
   391  0070                     ?_text:	
   392                           ; 1 bytes @ 0x0
   393                           
   394  0070                     ?_timer:	
   395                           ; 1 bytes @ 0x0
   396                           
   397  0070                     ?_isr:	
   398                           ; 1 bytes @ 0x0
   399                           
   400  0070                     ??_isr:	
   401                           ; 1 bytes @ 0x0
   402                           
   403  0070                     ?_main:	
   404                           ; 1 bytes @ 0x0
   405                           
   406  0070                     ?_putch:	
   407                           ; 1 bytes @ 0x0
   408                           
   409  0070                     ?_division:	
   410                           ; 1 bytes @ 0x0
   411                           
   412  0070                     ?_printf:	
   413                           ; 1 bytes @ 0x0
   414                           
   415                           
   416                           ; 2 bytes @ 0x0
   417  0070                     	ds	3
   418  0073                     ??_setup:
   419  0073                     ??_timer:	
   420                           ; 1 bytes @ 0x3
   421                           
   422  0073                     ??_putch:	
   423                           ; 1 bytes @ 0x3
   424                           
   425  0073                     ?___bmul:	
   426                           ; 1 bytes @ 0x3
   427                           
   428  0073                     ?___awdiv:	
   429                           ; 1 bytes @ 0x3
   430                           
   431  0073                     putch@info:	
   432                           ; 2 bytes @ 0x3
   433                           
   434  0073                     ___bmul@multiplicand:	
   435                           ; 1 bytes @ 0x3
   436                           
   437  0073                     ___awdiv@divisor:	
   438                           ; 1 bytes @ 0x3
   439                           
   440                           
   441                           ; 2 bytes @ 0x3
   442  0073                     	ds	1
   443  0074                     ??_printf:
   444  0074                     ??___bmul:	
   445                           ; 1 bytes @ 0x4
   446                           
   447                           
   448                           ; 1 bytes @ 0x4
   449  0074                     	ds	1
   450  0075                     printf@ap:
   451  0075                     ___bmul@product:	
   452                           ; 1 bytes @ 0x5
   453                           
   454  0075                     ___awdiv@dividend:	
   455                           ; 1 bytes @ 0x5
   456                           
   457                           
   458                           ; 2 bytes @ 0x5
   459  0075                     	ds	1
   460  0076                     printf@c:
   461  0076                     ___bmul@multiplier:	
   462                           ; 1 bytes @ 0x6
   463                           
   464                           
   465                           ; 1 bytes @ 0x6
   466  0076                     	ds	1
   467  0077                     ??___awdiv:
   468  0077                     printf@f:	
   469                           ; 1 bytes @ 0x7
   470                           
   471                           
   472                           ; 1 bytes @ 0x7
   473  0077                     	ds	1
   474  0078                     ??_main:
   475                           
   476                           	psect	cstackBANK0
   477  0020                     __pcstackBANK0:	
   478                           ; 1 bytes @ 0x8
   479                           
   480  0020                     ___awdiv@counter:
   481                           
   482                           ; 1 bytes @ 0x0
   483  0020                     	ds	1
   484  0021                     ___awdiv@sign:
   485                           
   486                           ; 1 bytes @ 0x1
   487  0021                     	ds	1
   488  0022                     ___awdiv@quotient:
   489                           
   490                           ; 2 bytes @ 0x2
   491  0022                     	ds	2
   492  0024                     ??_division:
   493                           
   494                           ; 1 bytes @ 0x4
   495  0024                     	ds	3
   496  0027                     division@variable:
   497                           
   498                           ; 1 bytes @ 0x7
   499  0027                     	ds	1
   500  0028                     division@val:
   501                           
   502                           ; 1 bytes @ 0x8
   503  0028                     	ds	1
   504  0029                     ??_text:
   505                           
   506                           ; 1 bytes @ 0x9
   507  0029                     	ds	2
   508                           
   509                           	psect	maintext
   510  0351                     __pmaintext:	
   511 ;;
   512 ;;Main: autosize = 0, tempsize = 0, incstack = 0, save=0
   513 ;;
   514 ;; *************** function _main *****************
   515 ;; Defined at:
   516 ;;		line 296 in file "HDT07.c"
   517 ;; Parameters:    Size  Location     Type
   518 ;;		None
   519 ;; Auto vars:     Size  Location     Type
   520 ;;		None
   521 ;; Return value:  Size  Location     Type
   522 ;;                  1    wreg      void 
   523 ;; Registers used:
   524 ;;		wreg, fsr0l, fsr0h, status,2, status,0, pclath, cstack
   525 ;; Tracked objects:
   526 ;;		On entry : B00/0
   527 ;;		On exit  : 0/0
   528 ;;		Unchanged: 0/0
   529 ;; Data sizes:     COMMON   BANK0   BANK1   BANK3   BANK2
   530 ;;      Params:         0       0       0       0       0
   531 ;;      Locals:         0       0       0       0       0
   532 ;;      Temps:          0       0       0       0       0
   533 ;;      Totals:         0       0       0       0       0
   534 ;;Total ram usage:        0 bytes
   535 ;; Hardware stack levels required when called:    4
   536 ;; This function calls:
   537 ;;		_setup
   538 ;;		_text
   539 ;;		_timer
   540 ;; This function is called by:
   541 ;;		Startup code after reset
   542 ;; This function uses a non-reentrant model
   543 ;;
   544                           
   545                           
   546                           ;psect for function _main
   547  0351                     _main:
   548  0351                     l1417:	
   549                           ;incstack = 0
   550                           ; Regs used in _main: [wreg-fsr0h+status,2+status,0+pclath+cstack]
   551                           
   552  0351  120A  118A  22CB  120A  118A  	fcall	_setup
   553  0356                     l1419:
   554  0356  1283               	bcf	3,5	;RP0=0, select bank0
   555  0357  1303               	bcf	3,6	;RP1=0, select bank0
   556  0358  149F               	bsf	31,1	;volatile
   557  0359                     l1421:
   558  0359  120A  118A  2022  120A  118A  	fcall	_text
   559  035E                     l1423:
   560  035E  120A  118A  230A  120A  118A  	fcall	_timer
   561  0363  2B56               	goto	l1419
   562  0364  120A  118A  280C   	ljmp	start
   563  0367                     __end_of_main:
   564                           
   565                           	psect	text1
   566  030A                     __ptext1:	
   567 ;; *************** function _timer *****************
   568 ;; Defined at:
   569 ;;		line 458 in file "HDT07.c"
   570 ;; Parameters:    Size  Location     Type
   571 ;;		None
   572 ;; Auto vars:     Size  Location     Type
   573 ;;		None
   574 ;; Return value:  Size  Location     Type
   575 ;;                  1    wreg      void 
   576 ;; Registers used:
   577 ;;		wreg, status,2, status,0
   578 ;; Tracked objects:
   579 ;;		On entry : 0/0
   580 ;;		On exit  : 0/0
   581 ;;		Unchanged: 0/0
   582 ;; Data sizes:     COMMON   BANK0   BANK1   BANK3   BANK2
   583 ;;      Params:         0       0       0       0       0
   584 ;;      Locals:         0       0       0       0       0
   585 ;;      Temps:          0       0       0       0       0
   586 ;;      Totals:         0       0       0       0       0
   587 ;;Total ram usage:        0 bytes
   588 ;; Hardware stack levels used:    1
   589 ;; Hardware stack levels required when called:    1
   590 ;; This function calls:
   591 ;;		Nothing
   592 ;; This function is called by:
   593 ;;		_main
   594 ;; This function uses a non-reentrant model
   595 ;;
   596                           
   597                           
   598                           ;psect for function _timer
   599  030A                     _timer:
   600  030A                     l1265:	
   601                           ;incstack = 0
   602                           ; Regs used in _timer: [wreg+status,2+status,0]
   603                           
   604  030A  3001               	movlw	1
   605  030B  1283               	bcf	3,5	;RP0=0, select bank0
   606  030C  1303               	bcf	3,6	;RP1=0, select bank0
   607  030D  00AF               	movwf	_a
   608  030E  3000               	movlw	0
   609  030F  00B0               	movwf	_a+1
   610  0310                     l1267:
   611  0310  01AD               	clrf	_b
   612  0311  01AE               	clrf	_b+1
   613  0312  2B2B               	goto	l1275
   614  0313                     l1269:
   615  0313  082D               	movf	_b,w
   616  0314  3E01               	addlw	1
   617  0315  00AD               	movwf	_b
   618  0316  082E               	movf	_b+1,w
   619  0317  1803               	skipnc
   620  0318  3E01               	addlw	1
   621  0319  3E00               	addlw	0
   622  031A  00AE               	movwf	_b+1
   623  031B  3030               	movlw	48
   624  031C  062D               	xorwf	_b,w
   625  031D  3075               	movlw	117
   626  031E  1903               	skipnz
   627  031F  062E               	xorwf	_b+1,w
   628  0320  1D03               	btfss	3,2
   629  0321  2B23               	goto	u601
   630  0322  2B24               	goto	u600
   631  0323                     u601:
   632  0323  2B27               	goto	l1273
   633  0324                     u600:
   634  0324                     l1271:
   635  0324  01AF               	clrf	_a
   636  0325  01B0               	clrf	_a+1
   637  0326  2B2B               	goto	l1275
   638  0327                     l1273:
   639  0327  3001               	movlw	1
   640  0328  00AF               	movwf	_a
   641  0329  3000               	movlw	0
   642  032A  00B0               	movwf	_a+1
   643  032B                     l1275:
   644  032B  032F               	decf	_a,w
   645  032C  0430               	iorwf	_a+1,w
   646  032D  1903               	btfsc	3,2
   647  032E  2B30               	goto	u611
   648  032F  2B31               	goto	u610
   649  0330                     u611:
   650  0330  2B13               	goto	l1269
   651  0331                     u610:
   652  0331                     l122:
   653  0331  0008               	return
   654  0332                     __end_of_timer:
   655                           
   656                           	psect	text2
   657  0022                     __ptext2:	
   658 ;; *************** function _text *****************
   659 ;; Defined at:
   660 ;;		line 383 in file "HDT07.c"
   661 ;; Parameters:    Size  Location     Type
   662 ;;		None
   663 ;; Auto vars:     Size  Location     Type
   664 ;;		None
   665 ;; Return value:  Size  Location     Type
   666 ;;                  1    wreg      void 
   667 ;; Registers used:
   668 ;;		wreg, fsr0l, fsr0h, status,2, status,0, pclath, cstack
   669 ;; Tracked objects:
   670 ;;		On entry : 0/0
   671 ;;		On exit  : 0/0
   672 ;;		Unchanged: 0/0
   673 ;; Data sizes:     COMMON   BANK0   BANK1   BANK3   BANK2
   674 ;;      Params:         0       0       0       0       0
   675 ;;      Locals:         0       0       0       0       0
   676 ;;      Temps:          0       2       0       0       0
   677 ;;      Totals:         0       2       0       0       0
   678 ;;Total ram usage:        2 bytes
   679 ;; Hardware stack levels used:    1
   680 ;; Hardware stack levels required when called:    3
   681 ;; This function calls:
   682 ;;		_division
   683 ;;		_printf
   684 ;; This function is called by:
   685 ;;		_main
   686 ;; This function uses a non-reentrant model
   687 ;;
   688                           
   689                           
   690                           ;psect for function _text
   691  0022                     _text:
   692  0022                     l1331:	
   693                           ;incstack = 0
   694                           ; Regs used in _text: [wreg-fsr0h+status,2+status,0+pclath+cstack]
   695                           
   696  0022  3082               	movlw	130
   697  0023  1283               	bcf	3,5	;RP0=0, select bank0
   698  0024  1303               	bcf	3,6	;RP1=0, select bank0
   699  0025  00AA               	movwf	??_text+1
   700  0026  30DD               	movlw	221
   701  0027  00A9               	movwf	??_text
   702  0028                     u797:
   703  0028  0BA9               	decfsz	??_text,f
   704  0029  2828               	goto	u797
   705  002A  0BAA               	decfsz	??_text+1,f
   706  002B  2828               	goto	u797
   707  002C                     l1333:
   708  002C  3001               	movlw	(low ((STR_1-__stringbase)| (0+32768)))& (0+255)
   709  002D  120A  118A  2332  120A  118A  	fcall	_printf
   710  0032                     l1335:
   711  0032  3082               	movlw	130
   712  0033  1283               	bcf	3,5	;RP0=0, select bank0
   713  0034  1303               	bcf	3,6	;RP1=0, select bank0
   714  0035  00AA               	movwf	??_text+1
   715  0036  30DD               	movlw	221
   716  0037  00A9               	movwf	??_text
   717  0038                     u807:
   718  0038  0BA9               	decfsz	??_text,f
   719  0039  2838               	goto	u807
   720  003A  0BAA               	decfsz	??_text+1,f
   721  003B  2838               	goto	u807
   722  003C                     l1337:
   723  003C  087A               	movf	_POT1,w
   724  003D  120A  118A  220A  120A  118A  	fcall	_division
   725  0042                     l1339:
   726  0042  3082               	movlw	130
   727  0043  1283               	bcf	3,5	;RP0=0, select bank0
   728  0044  1303               	bcf	3,6	;RP1=0, select bank0
   729  0045  00AA               	movwf	??_text+1
   730  0046  30DD               	movlw	221
   731  0047  00A9               	movwf	??_text
   732  0048                     u817:
   733  0048  0BA9               	decfsz	??_text,f
   734  0049  2848               	goto	u817
   735  004A  0BAA               	decfsz	??_text+1,f
   736  004B  2848               	goto	u817
   737  004C                     l1341:
   738  004C  1283               	bcf	3,5	;RP0=0, select bank0
   739  004D  1303               	bcf	3,6	;RP1=0, select bank0
   740  004E  1E0C               	btfss	12,4	;volatile
   741  004F  2851               	goto	u671
   742  0050  2852               	goto	u670
   743  0051                     u671:
   744  0051  2854               	goto	l102
   745  0052                     u670:
   746  0052                     l1343:
   747  0052  0833               	movf	_centenas,w
   748  0053  0099               	movwf	25	;volatile
   749  0054                     l102:
   750  0054  3082               	movlw	130
   751  0055  1283               	bcf	3,5	;RP0=0, select bank0
   752  0056  1303               	bcf	3,6	;RP1=0, select bank0
   753  0057  00AA               	movwf	??_text+1
   754  0058  30DD               	movlw	221
   755  0059  00A9               	movwf	??_text
   756  005A                     u827:
   757  005A  0BA9               	decfsz	??_text,f
   758  005B  285A               	goto	u827
   759  005C  0BAA               	decfsz	??_text+1,f
   760  005D  285A               	goto	u827
   761  005E                     l1345:
   762  005E  1283               	bcf	3,5	;RP0=0, select bank0
   763  005F  1303               	bcf	3,6	;RP1=0, select bank0
   764  0060  1E0C               	btfss	12,4	;volatile
   765  0061  2863               	goto	u681
   766  0062  2864               	goto	u680
   767  0063                     u681:
   768  0063  2866               	goto	l103
   769  0064                     u680:
   770  0064                     l1347:
   771  0064  0832               	movf	_decenas,w
   772  0065  0099               	movwf	25	;volatile
   773  0066                     l103:
   774  0066  3082               	movlw	130
   775  0067  1283               	bcf	3,5	;RP0=0, select bank0
   776  0068  1303               	bcf	3,6	;RP1=0, select bank0
   777  0069  00AA               	movwf	??_text+1
   778  006A  30DD               	movlw	221
   779  006B  00A9               	movwf	??_text
   780  006C                     u837:
   781  006C  0BA9               	decfsz	??_text,f
   782  006D  286C               	goto	u837
   783  006E  0BAA               	decfsz	??_text+1,f
   784  006F  286C               	goto	u837
   785  0070                     l1349:
   786  0070  1283               	bcf	3,5	;RP0=0, select bank0
   787  0071  1303               	bcf	3,6	;RP1=0, select bank0
   788  0072  1E0C               	btfss	12,4	;volatile
   789  0073  2875               	goto	u691
   790  0074  2876               	goto	u690
   791  0075                     u691:
   792  0075  2878               	goto	l104
   793  0076                     u690:
   794  0076                     l1351:
   795  0076  0831               	movf	_unidades,w
   796  0077  0099               	movwf	25	;volatile
   797  0078                     l104:
   798  0078  3082               	movlw	130
   799  0079  1283               	bcf	3,5	;RP0=0, select bank0
   800  007A  1303               	bcf	3,6	;RP1=0, select bank0
   801  007B  00AA               	movwf	??_text+1
   802  007C  30DD               	movlw	221
   803  007D  00A9               	movwf	??_text
   804  007E                     u847:
   805  007E  0BA9               	decfsz	??_text,f
   806  007F  287E               	goto	u847
   807  0080  0BAA               	decfsz	??_text+1,f
   808  0081  287E               	goto	u847
   809  0082                     l1353:
   810  0082  3001               	movlw	(low ((STR_1-__stringbase)| (0+32768)))& (0+255)
   811  0083  120A  118A  2332  120A  118A  	fcall	_printf
   812  0088                     l1355:
   813  0088  3082               	movlw	130
   814  0089  1283               	bcf	3,5	;RP0=0, select bank0
   815  008A  1303               	bcf	3,6	;RP1=0, select bank0
   816  008B  00AA               	movwf	??_text+1
   817  008C  30DD               	movlw	221
   818  008D  00A9               	movwf	??_text
   819  008E                     u857:
   820  008E  0BA9               	decfsz	??_text,f
   821  008F  288E               	goto	u857
   822  0090  0BAA               	decfsz	??_text+1,f
   823  0091  288E               	goto	u857
   824  0092                     l1357:
   825  0092  0879               	movf	_POT2,w
   826  0093  120A  118A  220A  120A  118A  	fcall	_division
   827  0098                     l1359:
   828  0098  3082               	movlw	130
   829  0099  1283               	bcf	3,5	;RP0=0, select bank0
   830  009A  1303               	bcf	3,6	;RP1=0, select bank0
   831  009B  00AA               	movwf	??_text+1
   832  009C  30DD               	movlw	221
   833  009D  00A9               	movwf	??_text
   834  009E                     u867:
   835  009E  0BA9               	decfsz	??_text,f
   836  009F  289E               	goto	u867
   837  00A0  0BAA               	decfsz	??_text+1,f
   838  00A1  289E               	goto	u867
   839  00A2                     l1361:
   840  00A2  1283               	bcf	3,5	;RP0=0, select bank0
   841  00A3  1303               	bcf	3,6	;RP1=0, select bank0
   842  00A4  1E0C               	btfss	12,4	;volatile
   843  00A5  28A7               	goto	u701
   844  00A6  28A8               	goto	u700
   845  00A7                     u701:
   846  00A7  28AA               	goto	l105
   847  00A8                     u700:
   848  00A8                     l1363:
   849  00A8  0833               	movf	_centenas,w
   850  00A9  0099               	movwf	25	;volatile
   851  00AA                     l105:
   852  00AA  3082               	movlw	130
   853  00AB  1283               	bcf	3,5	;RP0=0, select bank0
   854  00AC  1303               	bcf	3,6	;RP1=0, select bank0
   855  00AD  00AA               	movwf	??_text+1
   856  00AE  30DD               	movlw	221
   857  00AF  00A9               	movwf	??_text
   858  00B0                     u877:
   859  00B0  0BA9               	decfsz	??_text,f
   860  00B1  28B0               	goto	u877
   861  00B2  0BAA               	decfsz	??_text+1,f
   862  00B3  28B0               	goto	u877
   863  00B4                     l1365:
   864  00B4  1283               	bcf	3,5	;RP0=0, select bank0
   865  00B5  1303               	bcf	3,6	;RP1=0, select bank0
   866  00B6  1E0C               	btfss	12,4	;volatile
   867  00B7  28B9               	goto	u711
   868  00B8  28BA               	goto	u710
   869  00B9                     u711:
   870  00B9  28BC               	goto	l106
   871  00BA                     u710:
   872  00BA                     l1367:
   873  00BA  0832               	movf	_decenas,w
   874  00BB  0099               	movwf	25	;volatile
   875  00BC                     l106:
   876  00BC  3082               	movlw	130
   877  00BD  1283               	bcf	3,5	;RP0=0, select bank0
   878  00BE  1303               	bcf	3,6	;RP1=0, select bank0
   879  00BF  00AA               	movwf	??_text+1
   880  00C0  30DD               	movlw	221
   881  00C1  00A9               	movwf	??_text
   882  00C2                     u887:
   883  00C2  0BA9               	decfsz	??_text,f
   884  00C3  28C2               	goto	u887
   885  00C4  0BAA               	decfsz	??_text+1,f
   886  00C5  28C2               	goto	u887
   887  00C6                     l1369:
   888  00C6  1283               	bcf	3,5	;RP0=0, select bank0
   889  00C7  1303               	bcf	3,6	;RP1=0, select bank0
   890  00C8  1E0C               	btfss	12,4	;volatile
   891  00C9  28CB               	goto	u721
   892  00CA  28CC               	goto	u720
   893  00CB                     u721:
   894  00CB  28CE               	goto	l107
   895  00CC                     u720:
   896  00CC                     l1371:
   897  00CC  0831               	movf	_unidades,w
   898  00CD  0099               	movwf	25	;volatile
   899  00CE                     l107:
   900  00CE  3082               	movlw	130
   901  00CF  1283               	bcf	3,5	;RP0=0, select bank0
   902  00D0  1303               	bcf	3,6	;RP1=0, select bank0
   903  00D1  00AA               	movwf	??_text+1
   904  00D2  30DD               	movlw	221
   905  00D3  00A9               	movwf	??_text
   906  00D4                     u897:
   907  00D4  0BA9               	decfsz	??_text,f
   908  00D5  28D4               	goto	u897
   909  00D6  0BAA               	decfsz	??_text+1,f
   910  00D7  28D4               	goto	u897
   911  00D8                     l1373:
   912  00D8  3001               	movlw	(low ((STR_1-__stringbase)| (0+32768)))& (0+255)
   913  00D9  120A  118A  2332  120A  118A  	fcall	_printf
   914  00DE                     l1375:
   915  00DE  3082               	movlw	130
   916  00DF  1283               	bcf	3,5	;RP0=0, select bank0
   917  00E0  1303               	bcf	3,6	;RP1=0, select bank0
   918  00E1  00AA               	movwf	??_text+1
   919  00E2  30DD               	movlw	221
   920  00E3  00A9               	movwf	??_text
   921  00E4                     u907:
   922  00E4  0BA9               	decfsz	??_text,f
   923  00E5  28E4               	goto	u907
   924  00E6  0BAA               	decfsz	??_text+1,f
   925  00E7  28E4               	goto	u907
   926  00E8                     l1377:
   927  00E8  0878               	movf	_POT3,w
   928  00E9  120A  118A  220A  120A  118A  	fcall	_division
   929  00EE                     l1379:
   930  00EE  3082               	movlw	130
   931  00EF  1283               	bcf	3,5	;RP0=0, select bank0
   932  00F0  1303               	bcf	3,6	;RP1=0, select bank0
   933  00F1  00AA               	movwf	??_text+1
   934  00F2  30DD               	movlw	221
   935  00F3  00A9               	movwf	??_text
   936  00F4                     u917:
   937  00F4  0BA9               	decfsz	??_text,f
   938  00F5  28F4               	goto	u917
   939  00F6  0BAA               	decfsz	??_text+1,f
   940  00F7  28F4               	goto	u917
   941  00F8                     l1381:
   942  00F8  1283               	bcf	3,5	;RP0=0, select bank0
   943  00F9  1303               	bcf	3,6	;RP1=0, select bank0
   944  00FA  1E0C               	btfss	12,4	;volatile
   945  00FB  28FD               	goto	u731
   946  00FC  28FE               	goto	u730
   947  00FD                     u731:
   948  00FD  2900               	goto	l108
   949  00FE                     u730:
   950  00FE                     l1383:
   951  00FE  0833               	movf	_centenas,w
   952  00FF  0099               	movwf	25	;volatile
   953  0100                     l108:
   954  0100  3082               	movlw	130
   955  0101  1283               	bcf	3,5	;RP0=0, select bank0
   956  0102  1303               	bcf	3,6	;RP1=0, select bank0
   957  0103  00AA               	movwf	??_text+1
   958  0104  30DD               	movlw	221
   959  0105  00A9               	movwf	??_text
   960  0106                     u927:
   961  0106  0BA9               	decfsz	??_text,f
   962  0107  2906               	goto	u927
   963  0108  0BAA               	decfsz	??_text+1,f
   964  0109  2906               	goto	u927
   965  010A                     l1385:
   966  010A  1283               	bcf	3,5	;RP0=0, select bank0
   967  010B  1303               	bcf	3,6	;RP1=0, select bank0
   968  010C  1E0C               	btfss	12,4	;volatile
   969  010D  290F               	goto	u741
   970  010E  2910               	goto	u740
   971  010F                     u741:
   972  010F  2912               	goto	l109
   973  0110                     u740:
   974  0110                     l1387:
   975  0110  0832               	movf	_decenas,w
   976  0111  0099               	movwf	25	;volatile
   977  0112                     l109:
   978  0112  3082               	movlw	130
   979  0113  1283               	bcf	3,5	;RP0=0, select bank0
   980  0114  1303               	bcf	3,6	;RP1=0, select bank0
   981  0115  00AA               	movwf	??_text+1
   982  0116  30DD               	movlw	221
   983  0117  00A9               	movwf	??_text
   984  0118                     u937:
   985  0118  0BA9               	decfsz	??_text,f
   986  0119  2918               	goto	u937
   987  011A  0BAA               	decfsz	??_text+1,f
   988  011B  2918               	goto	u937
   989  011C                     l1389:
   990  011C  1283               	bcf	3,5	;RP0=0, select bank0
   991  011D  1303               	bcf	3,6	;RP1=0, select bank0
   992  011E  1E0C               	btfss	12,4	;volatile
   993  011F  2921               	goto	u751
   994  0120  2922               	goto	u750
   995  0121                     u751:
   996  0121  2924               	goto	l110
   997  0122                     u750:
   998  0122                     l1391:
   999  0122  0831               	movf	_unidades,w
  1000  0123  0099               	movwf	25	;volatile
  1001  0124                     l110:
  1002  0124  3082               	movlw	130
  1003  0125  1283               	bcf	3,5	;RP0=0, select bank0
  1004  0126  1303               	bcf	3,6	;RP1=0, select bank0
  1005  0127  00AA               	movwf	??_text+1
  1006  0128  30DD               	movlw	221
  1007  0129  00A9               	movwf	??_text
  1008  012A                     u947:
  1009  012A  0BA9               	decfsz	??_text,f
  1010  012B  292A               	goto	u947
  1011  012C  0BAA               	decfsz	??_text+1,f
  1012  012D  292A               	goto	u947
  1013  012E                     l1393:
  1014  012E  3001               	movlw	(low ((STR_1-__stringbase)| (0+32768)))& (0+255)
  1015  012F  120A  118A  2332  120A  118A  	fcall	_printf
  1016  0134                     l1395:
  1017  0134  3082               	movlw	130
  1018  0135  1283               	bcf	3,5	;RP0=0, select bank0
  1019  0136  1303               	bcf	3,6	;RP1=0, select bank0
  1020  0137  00AA               	movwf	??_text+1
  1021  0138  30DD               	movlw	221
  1022  0139  00A9               	movwf	??_text
  1023  013A                     u957:
  1024  013A  0BA9               	decfsz	??_text,f
  1025  013B  293A               	goto	u957
  1026  013C  0BAA               	decfsz	??_text+1,f
  1027  013D  293A               	goto	u957
  1028  013E                     l1397:
  1029  013E  1283               	bcf	3,5	;RP0=0, select bank0
  1030  013F  1303               	bcf	3,6	;RP1=0, select bank0
  1031  0140  0834               	movf	_POT4,w
  1032  0141  120A  118A  220A  120A  118A  	fcall	_division
  1033  0146                     l1399:
  1034  0146  3082               	movlw	130
  1035  0147  1283               	bcf	3,5	;RP0=0, select bank0
  1036  0148  1303               	bcf	3,6	;RP1=0, select bank0
  1037  0149  00AA               	movwf	??_text+1
  1038  014A  30DD               	movlw	221
  1039  014B  00A9               	movwf	??_text
  1040  014C                     u967:
  1041  014C  0BA9               	decfsz	??_text,f
  1042  014D  294C               	goto	u967
  1043  014E  0BAA               	decfsz	??_text+1,f
  1044  014F  294C               	goto	u967
  1045  0150                     l1401:
  1046  0150  1283               	bcf	3,5	;RP0=0, select bank0
  1047  0151  1303               	bcf	3,6	;RP1=0, select bank0
  1048  0152  1E0C               	btfss	12,4	;volatile
  1049  0153  2955               	goto	u761
  1050  0154  2956               	goto	u760
  1051  0155                     u761:
  1052  0155  2958               	goto	l111
  1053  0156                     u760:
  1054  0156                     l1403:
  1055  0156  0833               	movf	_centenas,w
  1056  0157  0099               	movwf	25	;volatile
  1057  0158                     l111:
  1058  0158  3082               	movlw	130
  1059  0159  1283               	bcf	3,5	;RP0=0, select bank0
  1060  015A  1303               	bcf	3,6	;RP1=0, select bank0
  1061  015B  00AA               	movwf	??_text+1
  1062  015C  30DD               	movlw	221
  1063  015D  00A9               	movwf	??_text
  1064  015E                     u977:
  1065  015E  0BA9               	decfsz	??_text,f
  1066  015F  295E               	goto	u977
  1067  0160  0BAA               	decfsz	??_text+1,f
  1068  0161  295E               	goto	u977
  1069  0162                     l1405:
  1070  0162  1283               	bcf	3,5	;RP0=0, select bank0
  1071  0163  1303               	bcf	3,6	;RP1=0, select bank0
  1072  0164  1E0C               	btfss	12,4	;volatile
  1073  0165  2967               	goto	u771
  1074  0166  2968               	goto	u770
  1075  0167                     u771:
  1076  0167  296A               	goto	l112
  1077  0168                     u770:
  1078  0168                     l1407:
  1079  0168  0832               	movf	_decenas,w
  1080  0169  0099               	movwf	25	;volatile
  1081  016A                     l112:
  1082  016A  3082               	movlw	130
  1083  016B  1283               	bcf	3,5	;RP0=0, select bank0
  1084  016C  1303               	bcf	3,6	;RP1=0, select bank0
  1085  016D  00AA               	movwf	??_text+1
  1086  016E  30DD               	movlw	221
  1087  016F  00A9               	movwf	??_text
  1088  0170                     u987:
  1089  0170  0BA9               	decfsz	??_text,f
  1090  0171  2970               	goto	u987
  1091  0172  0BAA               	decfsz	??_text+1,f
  1092  0173  2970               	goto	u987
  1093  0174                     l1409:
  1094  0174  1283               	bcf	3,5	;RP0=0, select bank0
  1095  0175  1303               	bcf	3,6	;RP1=0, select bank0
  1096  0176  1E0C               	btfss	12,4	;volatile
  1097  0177  2979               	goto	u781
  1098  0178  297A               	goto	u780
  1099  0179                     u781:
  1100  0179  297C               	goto	l113
  1101  017A                     u780:
  1102  017A                     l1411:
  1103  017A  0831               	movf	_unidades,w
  1104  017B  0099               	movwf	25	;volatile
  1105  017C                     l113:
  1106  017C  3082               	movlw	130
  1107  017D  1283               	bcf	3,5	;RP0=0, select bank0
  1108  017E  1303               	bcf	3,6	;RP1=0, select bank0
  1109  017F  00AA               	movwf	??_text+1
  1110  0180  30DD               	movlw	221
  1111  0181  00A9               	movwf	??_text
  1112  0182                     u997:
  1113  0182  0BA9               	decfsz	??_text,f
  1114  0183  2982               	goto	u997
  1115  0184  0BAA               	decfsz	??_text+1,f
  1116  0185  2982               	goto	u997
  1117  0186  3082               	movlw	130
  1118  0187  1283               	bcf	3,5	;RP0=0, select bank0
  1119  0188  1303               	bcf	3,6	;RP1=0, select bank0
  1120  0189  00AA               	movwf	??_text+1
  1121  018A  30DD               	movlw	221
  1122  018B  00A9               	movwf	??_text
  1123  018C                     u1007:
  1124  018C  0BA9               	decfsz	??_text,f
  1125  018D  298C               	goto	u1007
  1126  018E  0BAA               	decfsz	??_text+1,f
  1127  018F  298C               	goto	u1007
  1128  0190                     l1413:
  1129  0190  3001               	movlw	(low ((STR_1-__stringbase)| (0+32768)))& (0+255)
  1130  0191  120A  118A  2332  120A  118A  	fcall	_printf
  1131  0196                     l1415:
  1132  0196  3082               	movlw	130
  1133  0197  1283               	bcf	3,5	;RP0=0, select bank0
  1134  0198  1303               	bcf	3,6	;RP1=0, select bank0
  1135  0199  00AA               	movwf	??_text+1
  1136  019A  30DD               	movlw	221
  1137  019B  00A9               	movwf	??_text
  1138  019C                     u1017:
  1139  019C  0BA9               	decfsz	??_text,f
  1140  019D  299C               	goto	u1017
  1141  019E  0BAA               	decfsz	??_text+1,f
  1142  019F  299C               	goto	u1017
  1143  01A0                     l114:
  1144  01A0  0008               	return
  1145  01A1                     __end_of_text:
  1146                           
  1147                           	psect	text3
  1148  0332                     __ptext3:	
  1149 ;; *************** function _printf *****************
  1150 ;; Defined at:
  1151 ;;		line 477 in file "C:\Program Files\Microchip\xc8\v2.31\pic\sources\c90\common\doprnt.c"
  1152 ;; Parameters:    Size  Location     Type
  1153 ;;  f               1    wreg     PTR const unsigned char 
  1154 ;;		 -> STR_5(2), STR_4(2), STR_3(2), STR_2(2), 
  1155 ;;		 -> STR_1(2), 
  1156 ;; Auto vars:     Size  Location     Type
  1157 ;;  f               1    7[COMMON] PTR const unsigned char 
  1158 ;;		 -> STR_5(2), STR_4(2), STR_3(2), STR_2(2), 
  1159 ;;		 -> STR_1(2), 
  1160 ;;  tmpval          4    0        struct .
  1161 ;;  cp              2    0        PTR const unsigned char 
  1162 ;;  len             2    0        unsigned int 
  1163 ;;  val             2    0        unsigned int 
  1164 ;;  c               1    6[COMMON] unsigned char 
  1165 ;;  ap              1    5[COMMON] PTR void [1]
  1166 ;;		 -> ?_printf(2), 
  1167 ;;  flag            1    0        unsigned char 
  1168 ;;  prec            1    0        char 
  1169 ;; Return value:  Size  Location     Type
  1170 ;;                  2   46[None  ] int 
  1171 ;; Registers used:
  1172 ;;		wreg, fsr0l, fsr0h, status,2, status,0, pclath, cstack
  1173 ;; Tracked objects:
  1174 ;;		On entry : 0/0
  1175 ;;		On exit  : 0/0
  1176 ;;		Unchanged: 0/0
  1177 ;; Data sizes:     COMMON   BANK0   BANK1   BANK3   BANK2
  1178 ;;      Params:         0       0       0       0       0
  1179 ;;      Locals:         3       0       0       0       0
  1180 ;;      Temps:          1       0       0       0       0
  1181 ;;      Totals:         4       0       0       0       0
  1182 ;;Total ram usage:        4 bytes
  1183 ;; Hardware stack levels used:    1
  1184 ;; Hardware stack levels required when called:    2
  1185 ;; This function calls:
  1186 ;;		_putch
  1187 ;; This function is called by:
  1188 ;;		_text
  1189 ;; This function uses a non-reentrant model
  1190 ;;
  1191                           
  1192                           
  1193                           ;psect for function _printf
  1194  0332                     _printf:
  1195                           
  1196                           ;incstack = 0
  1197                           ; Regs used in _printf: [wreg-fsr0h+status,2+status,0+pclath+cstack]
  1198                           ;printf@f stored from wreg
  1199  0332  00F7               	movwf	printf@f
  1200  0333                     l1173:
  1201                           
  1202                           ;C:\Program Files\Microchip\xc8\v2.31\pic\sources\c90\common\doprnt.c: 477: printf(const
      +                           char * f, ...);C:\Program Files\Microchip\xc8\v2.31\pic\sources\c90\common\doprnt.c: 47
      +                          8: {;C:\Program Files\Microchip\xc8\v2.31\pic\sources\c90\common\doprnt.c: 479:  va_list
      +                           ap;;C:\Program Files\Microchip\xc8\v2.31\pic\sources\c90\common\doprnt.c: 512:  char c;
      +                          ;C:\Program Files\Microchip\xc8\v2.31\pic\sources\c90\common\doprnt.c: 521:  signed char
      +                           prec;;C:\Program Files\Microchip\xc8\v2.31\pic\sources\c90\common\doprnt.c: 525:  unsig
      +                          ned char flag;
  1203  0333  3070               	movlw	(low (?_printf| 0))& (0+255)
  1204  0334  00F4               	movwf	??_printf
  1205  0335  0874               	movf	??_printf,w
  1206  0336  00F5               	movwf	printf@ap
  1207                           
  1208                           ;C:\Program Files\Microchip\xc8\v2.31\pic\sources\c90\common\doprnt.c: 553:  while((c = 
      +                          *f++)) {
  1209  0337  2B3E               	goto	l1177
  1210  0338                     l1175:
  1211                           
  1212                           ;C:\Program Files\Microchip\xc8\v2.31\pic\sources\c90\common\doprnt.c: 557:   {;C:\Progr
      +                          am Files\Microchip\xc8\v2.31\pic\sources\c90\common\doprnt.c: 558:    (putch(c) );
  1213  0338  0876               	movf	printf@c,w
  1214  0339  120A  118A  237C  120A  118A  	fcall	_putch
  1215  033E                     l1177:	
  1216                           ;C:\Program Files\Microchip\xc8\v2.31\pic\sources\c90\common\doprnt.c: 559:    continue;
  1217                           
  1218                           
  1219                           ;C:\Program Files\Microchip\xc8\v2.31\pic\sources\c90\common\doprnt.c: 553:  while((c = 
      +                          *f++)) {
  1220  033E  3001               	movlw	1
  1221  033F  07F7               	addwf	printf@f,f
  1222  0340  30FF               	movlw	-1
  1223  0341  0777               	addwf	printf@f,w
  1224  0342  0084               	movwf	4
  1225  0343  120A  118A  2386  120A  118A  	fcall	stringdir
  1226  0348  00F4               	movwf	??_printf
  1227  0349  0874               	movf	??_printf,w
  1228  034A  00F6               	movwf	printf@c
  1229  034B  0876               	movf	printf@c,w
  1230  034C  1D03               	btfss	3,2
  1231  034D  2B4F               	goto	u471
  1232  034E  2B50               	goto	u470
  1233  034F                     u471:
  1234  034F  2B38               	goto	l1175
  1235  0350                     u470:
  1236  0350                     l229:
  1237  0350  0008               	return
  1238  0351                     __end_of_printf:
  1239                           
  1240                           	psect	text4
  1241  037C                     __ptext4:	
  1242 ;; *************** function _putch *****************
  1243 ;; Defined at:
  1244 ;;		line 363 in file "HDT07.c"
  1245 ;; Parameters:    Size  Location     Type
  1246 ;;  info            1    wreg     unsigned char 
  1247 ;; Auto vars:     Size  Location     Type
  1248 ;;  info            1    3[COMMON] unsigned char 
  1249 ;; Return value:  Size  Location     Type
  1250 ;;                  1    wreg      void 
  1251 ;; Registers used:
  1252 ;;		wreg
  1253 ;; Tracked objects:
  1254 ;;		On entry : 0/0
  1255 ;;		On exit  : 0/0
  1256 ;;		Unchanged: 0/0
  1257 ;; Data sizes:     COMMON   BANK0   BANK1   BANK3   BANK2
  1258 ;;      Params:         0       0       0       0       0
  1259 ;;      Locals:         1       0       0       0       0
  1260 ;;      Temps:          0       0       0       0       0
  1261 ;;      Totals:         1       0       0       0       0
  1262 ;;Total ram usage:        1 bytes
  1263 ;; Hardware stack levels used:    1
  1264 ;; Hardware stack levels required when called:    1
  1265 ;; This function calls:
  1266 ;;		Nothing
  1267 ;; This function is called by:
  1268 ;;		_printf
  1269 ;; This function uses a non-reentrant model
  1270 ;;
  1271                           
  1272                           
  1273                           ;psect for function _putch
  1274  037C                     _putch:
  1275                           
  1276                           ;incstack = 0
  1277                           ; Regs used in _putch: [wreg]
  1278                           ;putch@info stored from wreg
  1279  037C  00F3               	movwf	putch@info
  1280  037D                     l1095:
  1281  037D                     l93:
  1282  037D  1283               	bcf	3,5	;RP0=0, select bank0
  1283  037E  1303               	bcf	3,6	;RP1=0, select bank0
  1284  037F  1E0C               	btfss	12,4	;volatile
  1285  0380  2B82               	goto	u341
  1286  0381  2B83               	goto	u340
  1287  0382                     u341:
  1288  0382  2B7D               	goto	l93
  1289  0383                     u340:
  1290  0383                     l1097:
  1291  0383  0873               	movf	putch@info,w
  1292  0384  0099               	movwf	25	;volatile
  1293  0385                     l96:
  1294  0385  0008               	return
  1295  0386                     __end_of_putch:
  1296                           
  1297                           	psect	text5
  1298  020A                     __ptext5:	
  1299 ;; *************** function _division *****************
  1300 ;; Defined at:
  1301 ;;		line 369 in file "HDT07.c"
  1302 ;; Parameters:    Size  Location     Type
  1303 ;;  variable        1    wreg     unsigned char 
  1304 ;; Auto vars:     Size  Location     Type
  1305 ;;  variable        1    7[BANK0 ] unsigned char 
  1306 ;;  val             1    8[BANK0 ] unsigned char 
  1307 ;; Return value:  Size  Location     Type
  1308 ;;                  1    wreg      void 
  1309 ;; Registers used:
  1310 ;;		wreg, status,2, status,0, pclath, cstack
  1311 ;; Tracked objects:
  1312 ;;		On entry : 0/0
  1313 ;;		On exit  : 0/0
  1314 ;;		Unchanged: 0/0
  1315 ;; Data sizes:     COMMON   BANK0   BANK1   BANK3   BANK2
  1316 ;;      Params:         0       0       0       0       0
  1317 ;;      Locals:         0       2       0       0       0
  1318 ;;      Temps:          0       3       0       0       0
  1319 ;;      Totals:         0       5       0       0       0
  1320 ;;Total ram usage:        5 bytes
  1321 ;; Hardware stack levels used:    1
  1322 ;; Hardware stack levels required when called:    2
  1323 ;; This function calls:
  1324 ;;		___awdiv
  1325 ;;		___bmul
  1326 ;; This function is called by:
  1327 ;;		_text
  1328 ;; This function uses a non-reentrant model
  1329 ;;
  1330                           
  1331                           
  1332                           ;psect for function _division
  1333  020A                     _division:
  1334                           
  1335                           ;incstack = 0
  1336                           ; Regs used in _division: [wreg+status,2+status,0+pclath+cstack]
  1337                           ;division@variable stored from wreg
  1338  020A  1283               	bcf	3,5	;RP0=0, select bank0
  1339  020B  1303               	bcf	3,6	;RP1=0, select bank0
  1340  020C  00A7               	movwf	division@variable
  1341  020D                     l1315:
  1342  020D  0827               	movf	division@variable,w
  1343  020E  00A4               	movwf	??_division
  1344  020F  0824               	movf	??_division,w
  1345  0210  00A8               	movwf	division@val
  1346  0211                     l1317:
  1347  0211  3064               	movlw	100
  1348  0212  00F3               	movwf	___awdiv@divisor
  1349  0213  3000               	movlw	0
  1350  0214  00F4               	movwf	___awdiv@divisor+1
  1351  0215  0828               	movf	division@val,w
  1352  0216  00A4               	movwf	??_division
  1353  0217  01A5               	clrf	??_division+1
  1354  0218  0824               	movf	??_division,w
  1355  0219  00F5               	movwf	___awdiv@dividend
  1356  021A  0825               	movf	??_division+1,w
  1357  021B  00F6               	movwf	___awdiv@dividend+1
  1358  021C  120A  118A  21A1  120A  118A  	fcall	___awdiv
  1359  0221  0873               	movf	?___awdiv,w
  1360  0222  1283               	bcf	3,5	;RP0=0, select bank0
  1361  0223  1303               	bcf	3,6	;RP1=0, select bank0
  1362  0224  00A6               	movwf	??_division+2
  1363  0225  0826               	movf	??_division+2,w
  1364  0226  00B3               	movwf	_centenas
  1365  0227                     l1319:
  1366  0227  309C               	movlw	156
  1367  0228  00A4               	movwf	??_division
  1368  0229  0824               	movf	??_division,w
  1369  022A  00F3               	movwf	___bmul@multiplicand
  1370  022B  0833               	movf	_centenas,w
  1371  022C  120A  118A  2367  120A  118A  	fcall	___bmul
  1372  0231  1283               	bcf	3,5	;RP0=0, select bank0
  1373  0232  1303               	bcf	3,6	;RP1=0, select bank0
  1374  0233  0728               	addwf	division@val,w
  1375  0234  00A5               	movwf	??_division+1
  1376  0235  0825               	movf	??_division+1,w
  1377  0236  00A8               	movwf	division@val
  1378  0237                     l1321:
  1379  0237  300A               	movlw	10
  1380  0238  00F3               	movwf	___awdiv@divisor
  1381  0239  3000               	movlw	0
  1382  023A  00F4               	movwf	___awdiv@divisor+1
  1383  023B  0828               	movf	division@val,w
  1384  023C  00A4               	movwf	??_division
  1385  023D  01A5               	clrf	??_division+1
  1386  023E  0824               	movf	??_division,w
  1387  023F  00F5               	movwf	___awdiv@dividend
  1388  0240  0825               	movf	??_division+1,w
  1389  0241  00F6               	movwf	___awdiv@dividend+1
  1390  0242  120A  118A  21A1  120A  118A  	fcall	___awdiv
  1391  0247  0873               	movf	?___awdiv,w
  1392  0248  1283               	bcf	3,5	;RP0=0, select bank0
  1393  0249  1303               	bcf	3,6	;RP1=0, select bank0
  1394  024A  00A6               	movwf	??_division+2
  1395  024B  0826               	movf	??_division+2,w
  1396  024C  00B2               	movwf	_decenas
  1397  024D                     l1323:
  1398  024D  30F6               	movlw	246
  1399  024E  00A4               	movwf	??_division
  1400  024F  0824               	movf	??_division,w
  1401  0250  00F3               	movwf	___bmul@multiplicand
  1402  0251  0832               	movf	_decenas,w
  1403  0252  120A  118A  2367  120A  118A  	fcall	___bmul
  1404  0257  1283               	bcf	3,5	;RP0=0, select bank0
  1405  0258  1303               	bcf	3,6	;RP1=0, select bank0
  1406  0259  0728               	addwf	division@val,w
  1407  025A  00A5               	movwf	??_division+1
  1408  025B  0825               	movf	??_division+1,w
  1409  025C  00A8               	movwf	division@val
  1410  025D  0828               	movf	division@val,w
  1411  025E  00A4               	movwf	??_division
  1412  025F  0824               	movf	??_division,w
  1413  0260  00B1               	movwf	_unidades
  1414  0261                     l1325:
  1415  0261  0833               	movf	_centenas,w
  1416  0262  3E30               	addlw	48
  1417  0263  00A4               	movwf	??_division
  1418  0264  0824               	movf	??_division,w
  1419  0265  00B3               	movwf	_centenas
  1420  0266                     l1327:
  1421  0266  0832               	movf	_decenas,w
  1422  0267  3E30               	addlw	48
  1423  0268  00A4               	movwf	??_division
  1424  0269  0824               	movf	??_division,w
  1425  026A  00B2               	movwf	_decenas
  1426  026B                     l1329:
  1427  026B  0831               	movf	_unidades,w
  1428  026C  3E30               	addlw	48
  1429  026D  00A4               	movwf	??_division
  1430  026E  0824               	movf	??_division,w
  1431  026F  00B1               	movwf	_unidades
  1432  0270                     l99:
  1433  0270  0008               	return
  1434  0271                     __end_of_division:
  1435                           
  1436                           	psect	text6
  1437  0367                     __ptext6:	
  1438 ;; *************** function ___bmul *****************
  1439 ;; Defined at:
  1440 ;;		line 4 in file "C:\Program Files\Microchip\xc8\v2.31\pic\sources\c90\common\Umul8.c"
  1441 ;; Parameters:    Size  Location     Type
  1442 ;;  multiplier      1    wreg     unsigned char 
  1443 ;;  multiplicand    1    3[COMMON] unsigned char 
  1444 ;; Auto vars:     Size  Location     Type
  1445 ;;  multiplier      1    6[COMMON] unsigned char 
  1446 ;;  product         1    5[COMMON] unsigned char 
  1447 ;; Return value:  Size  Location     Type
  1448 ;;                  1    wreg      unsigned char 
  1449 ;; Registers used:
  1450 ;;		wreg, status,2, status,0
  1451 ;; Tracked objects:
  1452 ;;		On entry : 0/0
  1453 ;;		On exit  : 0/0
  1454 ;;		Unchanged: 0/0
  1455 ;; Data sizes:     COMMON   BANK0   BANK1   BANK3   BANK2
  1456 ;;      Params:         1       0       0       0       0
  1457 ;;      Locals:         2       0       0       0       0
  1458 ;;      Temps:          1       0       0       0       0
  1459 ;;      Totals:         4       0       0       0       0
  1460 ;;Total ram usage:        4 bytes
  1461 ;; Hardware stack levels used:    1
  1462 ;; Hardware stack levels required when called:    1
  1463 ;; This function calls:
  1464 ;;		Nothing
  1465 ;; This function is called by:
  1466 ;;		_division
  1467 ;; This function uses a non-reentrant model
  1468 ;;
  1469                           
  1470                           
  1471                           ;psect for function ___bmul
  1472  0367                     ___bmul:
  1473                           
  1474                           ;incstack = 0
  1475                           ; Regs used in ___bmul: [wreg+status,2+status,0]
  1476                           ;___bmul@multiplier stored from wreg
  1477  0367  00F6               	movwf	___bmul@multiplier
  1478  0368                     l1099:
  1479  0368  01F5               	clrf	___bmul@product
  1480  0369                     l1101:
  1481  0369  1C76               	btfss	___bmul@multiplier,0
  1482  036A  2B6C               	goto	u351
  1483  036B  2B6D               	goto	u350
  1484  036C                     u351:
  1485  036C  2B71               	goto	l1105
  1486  036D                     u350:
  1487  036D                     l1103:
  1488  036D  0873               	movf	___bmul@multiplicand,w
  1489  036E  00F4               	movwf	??___bmul
  1490  036F  0874               	movf	??___bmul,w
  1491  0370  07F5               	addwf	___bmul@product,f
  1492  0371                     l1105:
  1493  0371  1003               	clrc
  1494  0372  0DF3               	rlf	___bmul@multiplicand,f
  1495  0373                     l1107:
  1496  0373  1003               	clrc
  1497  0374  0CF6               	rrf	___bmul@multiplier,f
  1498  0375  0876               	movf	___bmul@multiplier,w
  1499  0376  1D03               	btfss	3,2
  1500  0377  2B79               	goto	u361
  1501  0378  2B7A               	goto	u360
  1502  0379                     u361:
  1503  0379  2B69               	goto	l1101
  1504  037A                     u360:
  1505  037A                     l1109:
  1506  037A  0875               	movf	___bmul@product,w
  1507  037B                     l259:
  1508  037B  0008               	return
  1509  037C                     __end_of___bmul:
  1510                           
  1511                           	psect	text7
  1512  01A1                     __ptext7:	
  1513 ;; *************** function ___awdiv *****************
  1514 ;; Defined at:
  1515 ;;		line 5 in file "C:\Program Files\Microchip\xc8\v2.31\pic\sources\c90\common\awdiv.c"
  1516 ;; Parameters:    Size  Location     Type
  1517 ;;  divisor         2    3[COMMON] int 
  1518 ;;  dividend        2    5[COMMON] int 
  1519 ;; Auto vars:     Size  Location     Type
  1520 ;;  quotient        2    2[BANK0 ] int 
  1521 ;;  sign            1    1[BANK0 ] unsigned char 
  1522 ;;  counter         1    0[BANK0 ] unsigned char 
  1523 ;; Return value:  Size  Location     Type
  1524 ;;                  2    3[COMMON] int 
  1525 ;; Registers used:
  1526 ;;		wreg, status,2, status,0
  1527 ;; Tracked objects:
  1528 ;;		On entry : 0/0
  1529 ;;		On exit  : 0/0
  1530 ;;		Unchanged: 0/0
  1531 ;; Data sizes:     COMMON   BANK0   BANK1   BANK3   BANK2
  1532 ;;      Params:         4       0       0       0       0
  1533 ;;      Locals:         0       4       0       0       0
  1534 ;;      Temps:          1       0       0       0       0
  1535 ;;      Totals:         5       4       0       0       0
  1536 ;;Total ram usage:        9 bytes
  1537 ;; Hardware stack levels used:    1
  1538 ;; Hardware stack levels required when called:    1
  1539 ;; This function calls:
  1540 ;;		Nothing
  1541 ;; This function is called by:
  1542 ;;		_division
  1543 ;; This function uses a non-reentrant model
  1544 ;;
  1545                           
  1546                           
  1547                           ;psect for function ___awdiv
  1548  01A1                     ___awdiv:
  1549  01A1                     l1113:	
  1550                           ;incstack = 0
  1551                           ; Regs used in ___awdiv: [wreg+status,2+status,0]
  1552                           
  1553  01A1  1283               	bcf	3,5	;RP0=0, select bank0
  1554  01A2  1303               	bcf	3,6	;RP1=0, select bank0
  1555  01A3  01A1               	clrf	___awdiv@sign
  1556  01A4                     l1115:
  1557  01A4  1FF4               	btfss	___awdiv@divisor+1,7
  1558  01A5  29A7               	goto	u371
  1559  01A6  29A8               	goto	u370
  1560  01A7                     u371:
  1561  01A7  29AF               	goto	l1121
  1562  01A8                     u370:
  1563  01A8                     l1117:
  1564  01A8  09F3               	comf	___awdiv@divisor,f
  1565  01A9  09F4               	comf	___awdiv@divisor+1,f
  1566  01AA  0AF3               	incf	___awdiv@divisor,f
  1567  01AB  1903               	skipnz
  1568  01AC  0AF4               	incf	___awdiv@divisor+1,f
  1569  01AD                     l1119:
  1570  01AD  01A1               	clrf	___awdiv@sign
  1571  01AE  0AA1               	incf	___awdiv@sign,f
  1572  01AF                     l1121:
  1573  01AF  1FF6               	btfss	___awdiv@dividend+1,7
  1574  01B0  29B2               	goto	u381
  1575  01B1  29B3               	goto	u380
  1576  01B2                     u381:
  1577  01B2  29BC               	goto	l1127
  1578  01B3                     u380:
  1579  01B3                     l1123:
  1580  01B3  09F5               	comf	___awdiv@dividend,f
  1581  01B4  09F6               	comf	___awdiv@dividend+1,f
  1582  01B5  0AF5               	incf	___awdiv@dividend,f
  1583  01B6  1903               	skipnz
  1584  01B7  0AF6               	incf	___awdiv@dividend+1,f
  1585  01B8                     l1125:
  1586  01B8  3001               	movlw	1
  1587  01B9  00F7               	movwf	??___awdiv
  1588  01BA  0877               	movf	??___awdiv,w
  1589  01BB  06A1               	xorwf	___awdiv@sign,f
  1590  01BC                     l1127:
  1591  01BC  01A2               	clrf	___awdiv@quotient
  1592  01BD  01A3               	clrf	___awdiv@quotient+1
  1593  01BE                     l1129:
  1594  01BE  0873               	movf	___awdiv@divisor,w
  1595  01BF  0474               	iorwf	___awdiv@divisor+1,w
  1596  01C0  1903               	btfsc	3,2
  1597  01C1  29C3               	goto	u391
  1598  01C2  29C4               	goto	u390
  1599  01C3                     u391:
  1600  01C3  29FB               	goto	l1149
  1601  01C4                     u390:
  1602  01C4                     l1131:
  1603  01C4  01A0               	clrf	___awdiv@counter
  1604  01C5  0AA0               	incf	___awdiv@counter,f
  1605  01C6  29D2               	goto	l1137
  1606  01C7                     l1133:
  1607  01C7  3001               	movlw	1
  1608  01C8                     u405:
  1609  01C8  1003               	clrc
  1610  01C9  0DF3               	rlf	___awdiv@divisor,f
  1611  01CA  0DF4               	rlf	___awdiv@divisor+1,f
  1612  01CB  3EFF               	addlw	-1
  1613  01CC  1D03               	skipz
  1614  01CD  29C8               	goto	u405
  1615  01CE                     l1135:
  1616  01CE  3001               	movlw	1
  1617  01CF  00F7               	movwf	??___awdiv
  1618  01D0  0877               	movf	??___awdiv,w
  1619  01D1  07A0               	addwf	___awdiv@counter,f
  1620  01D2                     l1137:
  1621  01D2  1FF4               	btfss	___awdiv@divisor+1,7
  1622  01D3  29D5               	goto	u411
  1623  01D4  29D6               	goto	u410
  1624  01D5                     u411:
  1625  01D5  29C7               	goto	l1133
  1626  01D6                     u410:
  1627  01D6                     l1139:
  1628  01D6  3001               	movlw	1
  1629  01D7                     u425:
  1630  01D7  1003               	clrc
  1631  01D8  0DA2               	rlf	___awdiv@quotient,f
  1632  01D9  0DA3               	rlf	___awdiv@quotient+1,f
  1633  01DA  3EFF               	addlw	-1
  1634  01DB  1D03               	skipz
  1635  01DC  29D7               	goto	u425
  1636  01DD  0874               	movf	___awdiv@divisor+1,w
  1637  01DE  0276               	subwf	___awdiv@dividend+1,w
  1638  01DF  1D03               	skipz
  1639  01E0  29E3               	goto	u435
  1640  01E1  0873               	movf	___awdiv@divisor,w
  1641  01E2  0275               	subwf	___awdiv@dividend,w
  1642  01E3                     u435:
  1643  01E3  1C03               	skipc
  1644  01E4  29E6               	goto	u431
  1645  01E5  29E7               	goto	u430
  1646  01E6                     u431:
  1647  01E6  29EE               	goto	l1145
  1648  01E7                     u430:
  1649  01E7                     l1141:
  1650  01E7  0873               	movf	___awdiv@divisor,w
  1651  01E8  02F5               	subwf	___awdiv@dividend,f
  1652  01E9  0874               	movf	___awdiv@divisor+1,w
  1653  01EA  1C03               	skipc
  1654  01EB  03F6               	decf	___awdiv@dividend+1,f
  1655  01EC  02F6               	subwf	___awdiv@dividend+1,f
  1656  01ED                     l1143:
  1657  01ED  1422               	bsf	___awdiv@quotient,0
  1658  01EE                     l1145:
  1659  01EE  3001               	movlw	1
  1660  01EF                     u445:
  1661  01EF  1003               	clrc
  1662  01F0  0CF4               	rrf	___awdiv@divisor+1,f
  1663  01F1  0CF3               	rrf	___awdiv@divisor,f
  1664  01F2  3EFF               	addlw	-1
  1665  01F3  1D03               	skipz
  1666  01F4  29EF               	goto	u445
  1667  01F5                     l1147:
  1668  01F5  3001               	movlw	1
  1669  01F6  02A0               	subwf	___awdiv@counter,f
  1670  01F7  1D03               	btfss	3,2
  1671  01F8  29FA               	goto	u451
  1672  01F9  29FB               	goto	u450
  1673  01FA                     u451:
  1674  01FA  29D6               	goto	l1139
  1675  01FB                     u450:
  1676  01FB                     l1149:
  1677  01FB  0821               	movf	___awdiv@sign,w
  1678  01FC  1903               	btfsc	3,2
  1679  01FD  29FF               	goto	u461
  1680  01FE  2A00               	goto	u460
  1681  01FF                     u461:
  1682  01FF  2A05               	goto	l1153
  1683  0200                     u460:
  1684  0200                     l1151:
  1685  0200  09A2               	comf	___awdiv@quotient,f
  1686  0201  09A3               	comf	___awdiv@quotient+1,f
  1687  0202  0AA2               	incf	___awdiv@quotient,f
  1688  0203  1903               	skipnz
  1689  0204  0AA3               	incf	___awdiv@quotient+1,f
  1690  0205                     l1153:
  1691  0205  0823               	movf	___awdiv@quotient+1,w
  1692  0206  00F4               	movwf	?___awdiv+1
  1693  0207  0822               	movf	___awdiv@quotient,w
  1694  0208  00F3               	movwf	?___awdiv
  1695  0209                     l386:
  1696  0209  0008               	return
  1697  020A                     __end_of___awdiv:
  1698                           
  1699                           	psect	text8
  1700  02CB                     __ptext8:	
  1701 ;; *************** function _setup *****************
  1702 ;; Defined at:
  1703 ;;		line 311 in file "HDT07.c"
  1704 ;; Parameters:    Size  Location     Type
  1705 ;;		None
  1706 ;; Auto vars:     Size  Location     Type
  1707 ;;		None
  1708 ;; Return value:  Size  Location     Type
  1709 ;;                  1    wreg      void 
  1710 ;; Registers used:
  1711 ;;		wreg, status,2, status,0
  1712 ;; Tracked objects:
  1713 ;;		On entry : 0/0
  1714 ;;		On exit  : 0/0
  1715 ;;		Unchanged: 0/0
  1716 ;; Data sizes:     COMMON   BANK0   BANK1   BANK3   BANK2
  1717 ;;      Params:         0       0       0       0       0
  1718 ;;      Locals:         0       0       0       0       0
  1719 ;;      Temps:          0       0       0       0       0
  1720 ;;      Totals:         0       0       0       0       0
  1721 ;;Total ram usage:        0 bytes
  1722 ;; Hardware stack levels used:    1
  1723 ;; Hardware stack levels required when called:    1
  1724 ;; This function calls:
  1725 ;;		Nothing
  1726 ;; This function is called by:
  1727 ;;		_main
  1728 ;; This function uses a non-reentrant model
  1729 ;;
  1730                           
  1731                           
  1732                           ;psect for function _setup
  1733  02CB                     _setup:
  1734  02CB                     l823:	
  1735                           ;incstack = 0
  1736                           ; Regs used in _setup: [wreg+status,2+status,0]
  1737                           
  1738  02CB  300F               	movlw	15
  1739  02CC  1683               	bsf	3,5	;RP0=1, select bank3
  1740  02CD  1703               	bsf	3,6	;RP1=1, select bank3
  1741  02CE  0088               	movwf	8	;volatile
  1742  02CF                     l825:
  1743  02CF  0189               	clrf	9	;volatile
  1744  02D0                     l827:
  1745  02D0  1683               	bsf	3,5	;RP0=1, select bank1
  1746  02D1  1303               	bcf	3,6	;RP1=0, select bank1
  1747  02D2  1405               	bsf	5,0	;volatile
  1748  02D3                     l829:
  1749  02D3  1485               	bsf	5,1	;volatile
  1750  02D4                     l831:
  1751  02D4  1505               	bsf	5,2	;volatile
  1752  02D5                     l833:
  1753  02D5  1585               	bsf	5,3	;volatile
  1754  02D6                     l835:
  1755  02D6  1283               	bcf	3,5	;RP0=0, select bank0
  1756  02D7  1303               	bcf	3,6	;RP1=0, select bank0
  1757  02D8  0185               	clrf	5	;volatile
  1758  02D9                     l837:
  1759  02D9  1683               	bsf	3,5	;RP0=1, select bank1
  1760  02DA  1303               	bcf	3,6	;RP1=0, select bank1
  1761  02DB  170F               	bsf	15,6	;volatile
  1762  02DC                     l839:
  1763  02DC  168F               	bsf	15,5	;volatile
  1764  02DD                     l841:
  1765  02DD  160F               	bsf	15,4	;volatile
  1766  02DE                     l843:
  1767  02DE  140F               	bsf	15,0	;volatile
  1768  02DF                     l845:
  1769  02DF  30C3               	movlw	-61
  1770  02E0  1283               	bcf	3,5	;RP0=0, select bank0
  1771  02E1  1303               	bcf	3,6	;RP1=0, select bank0
  1772  02E2  059F               	andwf	31,f	;volatile
  1773  02E3                     l847:
  1774  02E3  179F               	bsf	31,7	;volatile
  1775  02E4                     l849:
  1776  02E4  171F               	bsf	31,6	;volatile
  1777  02E5                     l851:
  1778  02E5  141F               	bsf	31,0	;volatile
  1779  02E6                     l853:
  1780  02E6  1683               	bsf	3,5	;RP0=1, select bank1
  1781  02E7  1303               	bcf	3,6	;RP1=0, select bank1
  1782  02E8  139F               	bcf	31,7	;volatile
  1783  02E9                     l855:
  1784  02E9  121F               	bcf	31,4	;volatile
  1785  02EA                     l857:
  1786  02EA  129F               	bcf	31,5	;volatile
  1787  02EB                     l859:
  1788  02EB  1518               	bsf	24,2	;volatile
  1789  02EC                     l861:
  1790  02EC  1683               	bsf	3,5	;RP0=1, select bank3
  1791  02ED  1703               	bsf	3,6	;RP1=1, select bank3
  1792  02EE  1587               	bsf	7,3	;volatile
  1793  02EF                     l863:
  1794  02EF  1683               	bsf	3,5	;RP0=1, select bank1
  1795  02F0  1303               	bcf	3,6	;RP1=0, select bank1
  1796  02F1  1218               	bcf	24,4	;volatile
  1797  02F2                     l865:
  1798  02F2  1283               	bcf	3,5	;RP0=0, select bank0
  1799  02F3  1303               	bcf	3,6	;RP1=0, select bank0
  1800  02F4  1798               	bsf	24,7	;volatile
  1801  02F5                     l867:
  1802  02F5  1618               	bsf	24,4	;volatile
  1803  02F6                     l869:
  1804  02F6  1683               	bsf	3,5	;RP0=1, select bank1
  1805  02F7  1303               	bcf	3,6	;RP1=0, select bank1
  1806  02F8  1698               	bsf	24,5	;volatile
  1807  02F9                     l871:
  1808  02F9  1283               	bcf	3,5	;RP0=0, select bank0
  1809  02FA  1303               	bcf	3,6	;RP1=0, select bank0
  1810  02FB  1318               	bcf	24,6	;volatile
  1811  02FC                     l873:
  1812  02FC  30CF               	movlw	207
  1813  02FD  1683               	bsf	3,5	;RP0=1, select bank1
  1814  02FE  1303               	bcf	3,6	;RP1=0, select bank1
  1815  02FF  0099               	movwf	25	;volatile
  1816  0300                     l875:
  1817  0300  019A               	clrf	26	;volatile
  1818  0301                     l877:
  1819  0301  178B               	bsf	11,7	;volatile
  1820  0302                     l879:
  1821  0302  1283               	bcf	3,5	;RP0=0, select bank0
  1822  0303  1303               	bcf	3,6	;RP1=0, select bank0
  1823  0304  130C               	bcf	12,6	;volatile
  1824  0305                     l881:
  1825  0305  1683               	bsf	3,5	;RP0=1, select bank1
  1826  0306  1303               	bcf	3,6	;RP1=0, select bank1
  1827  0307  170C               	bsf	12,6	;volatile
  1828  0308                     l883:
  1829  0308  170B               	bsf	11,6	;volatile
  1830  0309                     l90:
  1831  0309  0008               	return
  1832  030A                     __end_of_setup:
  1833                           
  1834                           	psect	text9
  1835  0271                     __ptext9:	
  1836 ;; *************** function _isr *****************
  1837 ;; Defined at:
  1838 ;;		line 265 in file "HDT07.c"
  1839 ;; Parameters:    Size  Location     Type
  1840 ;;		None
  1841 ;; Auto vars:     Size  Location     Type
  1842 ;;		None
  1843 ;; Return value:  Size  Location     Type
  1844 ;;                  1    wreg      void 
  1845 ;; Registers used:
  1846 ;;		wreg, status,2, status,0
  1847 ;; Tracked objects:
  1848 ;;		On entry : 0/0
  1849 ;;		On exit  : 0/0
  1850 ;;		Unchanged: 0/0
  1851 ;; Data sizes:     COMMON   BANK0   BANK1   BANK3   BANK2
  1852 ;;      Params:         0       0       0       0       0
  1853 ;;      Locals:         0       0       0       0       0
  1854 ;;      Temps:          3       0       0       0       0
  1855 ;;      Totals:         3       0       0       0       0
  1856 ;;Total ram usage:        3 bytes
  1857 ;; Hardware stack levels used:    1
  1858 ;; This function calls:
  1859 ;;		Nothing
  1860 ;; This function is called by:
  1861 ;;		Interrupt level 1
  1862 ;; This function uses a non-reentrant model
  1863 ;;
  1864                           
  1865                           
  1866                           ;psect for function _isr
  1867  0271                     _isr:
  1868  0271                     i1l1277:
  1869  0271  1283               	bcf	3,5	;RP0=0, select bank0
  1870  0272  1303               	bcf	3,6	;RP1=0, select bank0
  1871  0273  1F0C               	btfss	12,6	;volatile
  1872  0274  2A76               	goto	u62_21
  1873  0275  2A77               	goto	u62_20
  1874  0276                     u62_21:
  1875  0276  2AC4               	goto	i1l79
  1876  0277                     u62_20:
  1877  0277                     i1l1279:
  1878  0277  0C1F               	rrf	31,w	;volatile
  1879  0278  00F0               	movwf	??_isr
  1880  0279  0C70               	rrf	??_isr,w
  1881  027A  390F               	andlw	15
  1882  027B  3A00               	xorlw	0
  1883  027C  1D03               	skipz
  1884  027D  2A7F               	goto	u63_21
  1885  027E  2A80               	goto	u63_20
  1886  027F                     u63_21:
  1887  027F  2A89               	goto	i1l1285
  1888  0280                     u63_20:
  1889  0280                     i1l1281:
  1890  0280  081F               	movf	31,w	;volatile
  1891  0281  39C3               	andlw	-61
  1892  0282  3804               	iorlw	4
  1893  0283  009F               	movwf	31	;volatile
  1894  0284                     i1l1283:
  1895  0284  081E               	movf	30,w	;volatile
  1896  0285  00F0               	movwf	??_isr
  1897  0286  0870               	movf	??_isr,w
  1898  0287  00FA               	movwf	_POT1
  1899  0288  2ABD               	goto	i1l1303
  1900  0289                     i1l1285:
  1901  0289  0C1F               	rrf	31,w	;volatile
  1902  028A  00F0               	movwf	??_isr
  1903  028B  0C70               	rrf	??_isr,w
  1904  028C  390F               	andlw	15
  1905  028D  3A01               	xorlw	1
  1906  028E  1D03               	skipz
  1907  028F  2A91               	goto	u64_21
  1908  0290  2A92               	goto	u64_20
  1909  0291                     u64_21:
  1910  0291  2A9B               	goto	i1l1291
  1911  0292                     u64_20:
  1912  0292                     i1l1287:
  1913  0292  081F               	movf	31,w	;volatile
  1914  0293  39C3               	andlw	-61
  1915  0294  3808               	iorlw	8
  1916  0295  009F               	movwf	31	;volatile
  1917  0296                     i1l1289:
  1918  0296  081E               	movf	30,w	;volatile
  1919  0297  00F0               	movwf	??_isr
  1920  0298  0870               	movf	??_isr,w
  1921  0299  00F9               	movwf	_POT2
  1922  029A  2ABD               	goto	i1l1303
  1923  029B                     i1l1291:
  1924  029B  0C1F               	rrf	31,w	;volatile
  1925  029C  00F0               	movwf	??_isr
  1926  029D  0C70               	rrf	??_isr,w
  1927  029E  390F               	andlw	15
  1928  029F  3A02               	xorlw	2
  1929  02A0  1D03               	skipz
  1930  02A1  2AA3               	goto	u65_21
  1931  02A2  2AA4               	goto	u65_20
  1932  02A3                     u65_21:
  1933  02A3  2AAD               	goto	i1l1297
  1934  02A4                     u65_20:
  1935  02A4                     i1l1293:
  1936  02A4  081F               	movf	31,w	;volatile
  1937  02A5  39C3               	andlw	-61
  1938  02A6  380C               	iorlw	12
  1939  02A7  009F               	movwf	31	;volatile
  1940  02A8                     i1l1295:
  1941  02A8  081E               	movf	30,w	;volatile
  1942  02A9  00F0               	movwf	??_isr
  1943  02AA  0870               	movf	??_isr,w
  1944  02AB  00F8               	movwf	_POT3
  1945  02AC  2ABD               	goto	i1l1303
  1946  02AD                     i1l1297:
  1947  02AD  0C1F               	rrf	31,w	;volatile
  1948  02AE  00F0               	movwf	??_isr
  1949  02AF  0C70               	rrf	??_isr,w
  1950  02B0  390F               	andlw	15
  1951  02B1  3A03               	xorlw	3
  1952  02B2  1D03               	skipz
  1953  02B3  2AB5               	goto	u66_21
  1954  02B4  2AB6               	goto	u66_20
  1955  02B5                     u66_21:
  1956  02B5  2ABD               	goto	i1l75
  1957  02B6                     u66_20:
  1958  02B6                     i1l1299:
  1959  02B6  30C3               	movlw	-61
  1960  02B7  059F               	andwf	31,f	;volatile
  1961  02B8                     i1l1301:
  1962  02B8  081E               	movf	30,w	;volatile
  1963  02B9  00F0               	movwf	??_isr
  1964  02BA  0870               	movf	??_isr,w
  1965  02BB  00B4               	movwf	_POT4
  1966  02BC  2ABD               	goto	i1l1303
  1967  02BD                     i1l75:
  1968  02BD                     i1l1303:
  1969  02BD  3021               	movlw	33
  1970  02BE  00F0               	movwf	??_isr
  1971  02BF                     u102_27:
  1972  02BF  0BF0               	decfsz	??_isr,f
  1973  02C0  2ABF               	goto	u102_27
  1974  02C1                     i1l1305:
  1975  02C1  1283               	bcf	3,5	;RP0=0, select bank0
  1976  02C2  1303               	bcf	3,6	;RP1=0, select bank0
  1977  02C3  130C               	bcf	12,6	;volatile
  1978  02C4                     i1l79:
  1979  02C4  0872               	movf	??_isr+2,w
  1980  02C5  008A               	movwf	10
  1981  02C6  0E71               	swapf	??_isr+1,w
  1982  02C7  0083               	movwf	3
  1983  02C8  0EFE               	swapf	btemp,f
  1984  02C9  0E7E               	swapf	btemp,w
  1985  02CA  0009               	retfie
  1986  02CB                     __end_of_isr:
  1987  007E                     btemp	set	126	;btemp
  1988  007E                     wtemp0	set	126
  1989                           
  1990                           	psect	intentry
  1991  0004                     __pintentry:	
  1992                           ;incstack = 0
  1993                           ; Regs used in _isr: [wreg+status,2+status,0]
  1994                           
  1995  0004                     interrupt_function:
  1996  007E                     saved_w	set	btemp
  1997  0004  00FE               	movwf	btemp
  1998  0005  0E03               	swapf	3,w
  1999  0006  00F1               	movwf	??_isr+1
  2000  0007  080A               	movf	10,w
  2001  0008  00F2               	movwf	??_isr+2
  2002  0009  120A  118A  2A71   	ljmp	_isr
  2003                           
  2004                           	psect	config
  2005                           
  2006                           ;Config register CONFIG1 @ 0x2007
  2007                           ;	Oscillator Selection bits
  2008                           ;	FOSC = INTRC_NOCLKOUT, INTOSCIO oscillator: I/O function on RA6/OSC2/CLKOUT pin, I/O f
      +                          unction on RA7/OSC1/CLKIN
  2009                           ;	Watchdog Timer Enable bit
  2010                           ;	WDTE = OFF, WDT disabled and can be enabled by SWDTEN bit of the WDTCON register
  2011                           ;	Power-up Timer Enable bit
  2012                           ;	PWRTE = OFF, PWRT disabled
  2013                           ;	RE3/MCLR pin function select bit
  2014                           ;	MCLRE = OFF, RE3/MCLR pin function is digital input, MCLR internally tied to VDD
  2015                           ;	Code Protection bit
  2016                           ;	CP = OFF, Program memory code protection is disabled
  2017                           ;	Data Code Protection bit
  2018                           ;	CPD = OFF, Data memory code protection is disabled
  2019                           ;	Brown Out Reset Selection bits
  2020                           ;	BOREN = OFF, BOR disabled
  2021                           ;	Internal External Switchover bit
  2022                           ;	IESO = OFF, Internal/External Switchover mode is disabled
  2023                           ;	Fail-Safe Clock Monitor Enabled bit
  2024                           ;	FCMEN = OFF, Fail-Safe Clock Monitor is disabled
  2025                           ;	Low Voltage Programming Enable bit
  2026                           ;	LVP = OFF, RB3 pin has digital I/O, HV on MCLR must be used for programming
  2027                           ;	In-Circuit Debugger Mode bit
  2028                           ;	DEBUG = 0x1, unprogrammed default
  2029  2007                     	org	8199
  2030  2007  20D4               	dw	8404
  2031                           
  2032                           ;Config register CONFIG2 @ 0x2008
  2033                           ;	Brown-out Reset Selection bit
  2034                           ;	BOR4V = BOR40V, Brown-out Reset set to 4.0V
  2035                           ;	Flash Program Memory Self Write Enable bits
  2036                           ;	WRT = OFF, Write protection off
  2037  2008                     	org	8200
  2038  2008  3FFF               	dw	16383

Data Sizes:
    Strings     2
    Constant    0
    Data        0
    BSS         13
    Persistent  0
    Stack       0

Auto Spaces:
    Space          Size  Autos    Used
    COMMON           14      8      11
    BANK0            80     11      21
    BANK1            80      0       0
    BANK3            96      0       0
    BANK2            96      0       0

Pointer List with Targets:

    printf@f	PTR const unsigned char  size(1) Largest target is 2
		 -> STR_5(CODE[2]), STR_4(CODE[2]), STR_3(CODE[2]), STR_2(CODE[2]), 
		 -> STR_1(CODE[2]), 

    printf@ap	PTR void [1] size(1) Largest target is 2
		 -> ?_printf(COMMON[2]), 


Critical Paths under _main in COMMON

    _text->_printf
    _printf->_putch
    _division->___awdiv

Critical Paths under _isr in COMMON

    None.

Critical Paths under _main in BANK0

    _main->_text
    _text->_division
    _division->___awdiv

Critical Paths under _isr in BANK0

    None.

Critical Paths under _main in BANK1

    None.

Critical Paths under _isr in BANK1

    None.

Critical Paths under _main in BANK3

    None.

Critical Paths under _isr in BANK3

    None.

Critical Paths under _main in BANK2

    None.

Critical Paths under _isr in BANK2

    None.

Call Graph Tables:

 ---------------------------------------------------------------------------------
 (Depth) Function   	        Calls       Base Space   Used Autos Params    Refs
 ---------------------------------------------------------------------------------
 (0) _main                                                 0     0      0    1276
                              _setup
                               _text
                              _timer
 ---------------------------------------------------------------------------------
 (1) _timer                                                0     0      0       0
 ---------------------------------------------------------------------------------
 (1) _text                                                 2     2      0    1276
                                              9 BANK0      2     2      0
                           _division
                             _printf
 ---------------------------------------------------------------------------------
 (2) _printf                                              16    16      0     233
                                              4 COMMON     4     4      0
                              _putch
 ---------------------------------------------------------------------------------
 (3) _putch                                                1     1      0      22
                                              3 COMMON     1     1      0
 ---------------------------------------------------------------------------------
 (2) _division                                             5     5      0    1043
                                              4 BANK0      5     5      0
                            ___awdiv
                             ___bmul
 ---------------------------------------------------------------------------------
 (3) ___bmul                                               4     3      1     244
                                              3 COMMON     4     3      1
 ---------------------------------------------------------------------------------
 (3) ___awdiv                                              9     5      4     604
                                              3 COMMON     5     1      4
                                              0 BANK0      4     4      0
 ---------------------------------------------------------------------------------
 (1) _setup                                                0     0      0       0
 ---------------------------------------------------------------------------------
 Estimated maximum stack depth 3
 ---------------------------------------------------------------------------------
 (Depth) Function   	        Calls       Base Space   Used Autos Params    Refs
 ---------------------------------------------------------------------------------
 (4) _isr                                                  3     3      0       0
                                              0 COMMON     3     3      0
 ---------------------------------------------------------------------------------
 Estimated maximum stack depth 4
 ---------------------------------------------------------------------------------

 Call Graph Graphs:

 _main (ROOT)
   _setup
   _text
     _division
       ___awdiv
       ___bmul
     _printf
       _putch
   _timer

 _isr (ROOT)

 Address spaces:
Name               Size   Autos  Total    Cost      Usage
BITCOMMON            E      0       0       0        0.0%
EEDATA             100      0       0       0        0.0%
NULL                 0      0       0       0        0.0%
CODE                 0      0       0       0        0.0%
COMMON               E      8       B       1       78.6%
BITSFR0              0      0       0       1        0.0%
SFR0                 0      0       0       1        0.0%
BITSFR1              0      0       0       2        0.0%
SFR1                 0      0       0       2        0.0%
STACK                0      0       0       2        0.0%
ABS                  0      0      20       3        0.0%
BITBANK0            50      0       0       4        0.0%
BITSFR3              0      0       0       4        0.0%
SFR3                 0      0       0       4        0.0%
BANK0               50      B      15       5       26.2%
BITSFR2              0      0       0       5        0.0%
SFR2                 0      0       0       5        0.0%
BITBANK1            50      0       0       6        0.0%
BANK1               50      0       0       7        0.0%
BITBANK3            60      0       0       8        0.0%
BANK3               60      0       0       9        0.0%
BITBANK2            60      0       0      10        0.0%
BANK2               60      0       0      11        0.0%
DATA                 0      0      20      12        0.0%


Microchip Technology PIC Macro Assembler V2.31 build 20201012212115 
Symbol Table                                                                                   Sun Aug 15 01:31:43 2021

                      _a 002F                        _b 002D                        _c 002B  
                      pc 0002           ___bmul@product 0075                       l90 0309  
                     l93 037D                       l96 0385                       l99 0270  
           ___awdiv@sign 0021                       fsr 0004                      l110 0124  
                    l102 0054                      l111 0158                      l103 0066  
                    l112 016A                      l104 0078                      l113 017C  
                    l105 00AA                      l114 01A0                      l106 00BC  
                    l122 0331                      l107 00CE                      l108 0100  
                    l109 0112                      l229 0350                      l259 037B  
                    l386 0209                      l831 02D4                      l823 02CB  
                    l841 02DD                      l833 02D5                      l825 02CF  
                    l851 02E5                      l843 02DE                      l835 02D6  
                    l827 02D0                      l861 02EC                      l853 02E6  
                    l845 02DF                      l837 02D9                      l829 02D3  
                    l871 02F9                      l863 02EF                      l855 02E9  
                    l847 02E3                      l839 02DC                      l881 0305  
                    l873 02FC                      l865 02F2                      l857 02EA  
                    l849 02E4                      l883 0308                      l875 0300  
                    l867 02F5                      l859 02EB                      l877 0301  
                    l869 02F6                      l879 0302                      u410 01D6  
                    u411 01D5                      u340 0383                      u405 01C8  
                    u341 0382                      u430 01E7                      u350 036D  
                    u431 01E6                      u351 036C                      u360 037A  
                    u600 0324                      u425 01D7                      u361 0379  
                    u601 0323                      u450 01FB                      u370 01A8  
                    u610 0331                      u451 01FA                      u435 01E3  
                    u371 01A7                      u611 0330                      u460 0200  
                    u380 01B3                      u700 00A8                      u461 01FF  
                    u445 01EF                      u381 01B2                      u701 00A7  
                    u390 01C4                      u470 0350                      u710 00BA  
                    u391 01C3                      u471 034F                      u711 00B9  
                    u720 00CC                      u721 00CB                      u730 00FE  
                    u731 00FD                      u740 0110                      u741 010F  
                    u750 0122                      u670 0052                      u751 0121  
                    u671 0051                      u807 0038                      u760 0156  
                    u680 0064                      u761 0155                      u681 0063  
                    u817 0048                      u770 0168                      u690 0076  
                    u771 0167                      u907 00E4                      u691 0075  
                    u827 005A                      u780 017A                      u781 0179  
                    u917 00F4                      u837 006C                      u927 0106  
                    u847 007E                      u937 0118                      u857 008E  
                    u947 012A                      u867 009E                      u957 013A  
                    u877 00B0                      u797 0028                      u967 014C  
                    u887 00C2                      u977 015E                      u897 00D4  
                    u987 0170                      u997 0182                      _isr 0271  
                    fsr0 0004                     l1101 0369                     l1103 036D  
                   l1121 01AF                     l1113 01A1                     l1105 0371  
                   l1131 01C4                     l1123 01B3                     l1115 01A4  
                   l1107 0373                     l1141 01E7                     l1133 01C7  
                   l1125 01B8                     l1117 01A8                     l1109 037A  
                   l1151 0200                     l1143 01ED                     l1135 01CE  
                   l1127 01BC                     l1119 01AD                     l1153 0205  
                   l1145 01EE                     l1137 01D2                     l1129 01BE  
                   l1321 0237                     l1401 0150                     l1147 01F5  
                   l1139 01D6                     l1323 024D                     l1315 020D  
                   l1411 017A                     l1403 0156                     l1331 0022  
                   l1149 01FB                     l1325 0261                     l1317 0211  
                   l1173 0333                     l1413 0190                     l1405 0162  
                   l1341 004C                     l1333 002C                     l1421 0359  
                   l1327 0266                     l1319 0227                     l1095 037D  
                   l1175 0338                     l1415 0196                     l1407 0168  
                   l1351 0076                     l1343 0052                     l1335 0032  
                   l1271 0324                     l1423 035E                     l1329 026B  
                   l1097 0383                     l1177 033E                     l1409 0174  
                   l1361 00A2                     l1353 0082                     l1345 005E  
                   l1337 003C                     l1273 0327                     l1265 030A  
                   l1417 0351                     l1099 0368                     l1371 00CC  
                   l1363 00A8                     l1355 0088                     l1347 0064  
                   l1339 0042                     l1275 032B                     l1267 0310  
                   l1419 0356                     l1381 00F8                     l1373 00D8  
                   l1365 00B4                     l1357 0092                     l1349 0070  
                   l1269 0313                     l1391 0122                     l1383 00FE  
                   l1375 00DE                     l1367 00BA                     l1359 0098  
                   l1393 012E                     l1385 010A                     l1377 00E8  
                   l1369 00C6                     l1395 0134                     l1387 0110  
                   l1379 00EE                     l1397 013E                     l1389 011C  
                   l1399 0146                     ?_isr 0070                     STR_1 038C  
                   STR_2 038C                     STR_3 038C                     STR_4 038C  
                   STR_5 038C                     u1007 018C                     u1017 019C  
                   i1l75 02BD                     i1l79 02C4                     _POT1 007A  
                   _POT2 0079                     _POT3 0078                     _POT4 0034  
                   _TXIF 0064                     _main 0351                     _text 0022  
                   btemp 007E                     start 000C        ___bmul@multiplier 0076  
            division@val 0028                    ??_isr 0070                    ?_main 0070  
        __end_of___awdiv 020A                    ?_text 0070                    _ANSEL 0188  
        ___awdiv@divisor 0073          ___awdiv@counter 0020                    _SPBRG 0099  
                  _PORTA 0005                    u62_20 0277                    u62_21 0276  
                  u63_20 0280                    u63_21 027F                    u64_20 0292  
                  u64_21 0291                    u65_20 02A4                    u65_21 02A3  
                  u66_20 02B6                    u66_21 02B5                    _TXREG 0019  
                  _timer 030A                    _setup 02CB                    _putch 037C  
                  pclath 000A                    status 0003                    wtemp0 007E  
        __initialization 000F             __end_of_main 0367             __end_of_text 01A1  
                 ??_main 0078                   ??_text 0029                   _ADRESH 001E  
       ___awdiv@dividend 0075                   ?_timer 0070                   ?_setup 0070  
                 ?_putch 0070                   _ANSELH 0189                   i1l1301 02B8  
                 u102_27 02BF                   i1l1303 02BD                   i1l1305 02C1  
                 i1l1281 0280                   i1l1291 029B                   i1l1283 0284  
                 i1l1293 02A4                   i1l1285 0289                   i1l1277 0271  
                 i1l1295 02A8                   i1l1287 0292                   i1l1279 0277  
                 i1l1297 02AD                   i1l1289 0296                   i1l1299 02B6  
                 _SPBRGH 009A                   ___bmul 0367         __end_of_division 0271  
              ??___awdiv 0077         ___awdiv@quotient 0022                   _printf 0332  
                 saved_w 007E  __end_of__initialization 001E      ___bmul@multiplicand 0073  
         __pcstackCOMMON 0070            __end_of_timer 0332            __end_of_setup 030A  
          __end_of_putch 0386         division@variable 0027                  ??_timer 0073  
                ??_setup 0073                  ??_putch 0073               __pbssBANK0 002B  
             __pmaintext 0351                  ?___bmul 0073               __pintentry 0004  
                ?_printf 0070               __stringtab 0386                ?_division 0070  
        __size_of___bmul 0015                  ___awdiv 01A1                  _decenas 0032  
                __ptext1 030A                  __ptext2 0022                  __ptext3 0332  
                __ptext4 037C                  __ptext5 020A                  __ptext6 0367  
                __ptext7 01A1                  __ptext8 02CB                  __ptext9 0271  
        __size_of_printf 001F             __size_of_isr 005A     end_of_initialization 001E  
             ??_division 0024                _RCSTAbits 0018                  printf@c 0076  
                printf@f 0077                _TRISAbits 0085                _TXSTAbits 0098  
         __end_of___bmul 037C              _BAUDCTLbits 0187           __end_of_printf 0351  
    start_initialization 000F              __end_of_isr 02CB                 ??___bmul 0074  
               ??_printf 0074              __pbssCOMMON 0078                ___latbits 0002  
          __pcstackBANK0 0020        __size_of_division 0067                 ?___awdiv 0073  
              __pstrings 0386           __size_of_timer 0028           __size_of_setup 003F  
         __size_of_putch 000A        interrupt_function 0004                 _PIE1bits 008C  
               _PIR1bits 000C               _ADCON0bits 001F              __stringbase 038B  
             _ADCON1bits 009F         __size_of___awdiv 0069       __end_of__stringtab 038C  
               _centenas 0033                 _division 020A            __size_of_main 0016  
          __size_of_text 017F                 _unidades 0031                putch@info 0073  
             _INTCONbits 000B                 intlevel1 0000                stringcode 0386  
             _OSCCONbits 008F                 printf@ap 0075                 stringdir 0386  
               stringtab 0386  
